 Network

 Timestamp is 5c3fd6e9 (Thu Jan 17 04:14:17 2019)

 Preferred load address is 0000000180000000

 Start         Length     Name                   Class
 0001:00000000 00000008H .CRT$XCA                CODE
 0001:00000008 00000008H .CRT$XCZ                CODE
 0001:00000010 00000008H .CRT$XIA                CODE
 0001:00000018 00000018H .CRT$XIC                CODE
 0001:00000030 00000008H .CRT$XIZ                CODE
 0001:00000038 00000008H .CRT$XPA                CODE
 0001:00000040 00000010H .CRT$XPX                CODE
 0001:00000050 00000008H .CRT$XPXA               CODE
 0001:00000058 00000008H .CRT$XPZ                CODE
 0001:00000060 00000008H .CRT$XTA                CODE
 0001:00000068 00000008H .CRT$XTZ                CODE
 0001:00000070 00000000H .gfids$y                CODE
 0001:00000070 00007750H .rdata                  CODE
 0001:000077c0 000001f4H .rdata$r                CODE
 0001:000079b4 000002b4H .rdata$zzzdbg           CODE
 0001:00007c68 00000008H .rtc$IAA                CODE
 0001:00007c70 00000008H .rtc$IZZ                CODE
 0001:00007c78 00000008H .rtc$TAA                CODE
 0001:00007c80 00000010H .rtc$TZZ                CODE
 0001:00007c90 00012910H .text$mn                CODE
 0001:0001a5a0 00000020H .text$mn$00             CODE
 0001:0001a5c0 00000250H .text$x                 CODE
 0001:0001a810 000013b8H .xdata                  CODE
 0001:0001bbc8 000000f8H .xdata$x                CODE
 0001:0001bcc0 00000182H .edata                  CODE
 0002:00000000 00000aa0H .data                   DATA
 0002:00000aa0 000000a0H .data$r                 DATA
 0002:00000b40 000022b0H .bss                    DATA
 0003:00000000 000014b8H .pdata                  DATA
 0004:00000000 00000320H .idata$5                DATA
 0004:00000320 00000010H .00cfg                  DATA
 0004:00000330 00000064H .idata$2                DATA
 0004:00000394 00000014H .idata$3                DATA
 0004:000003a8 00000320H .idata$4                DATA
 0004:000006c8 00000726H .idata$6                DATA
 0005:00000000 00000060H .rsrc$01                DATA
 0005:00000060 00000370H .rsrc$02                DATA

  Address         Publics by Value              Rva+Base               Lib:Object

 0000:00000000       __guard_iat_table          0000000000000000     <absolute>
 0000:00000000       __dynamic_value_reloc_table 0000000000000000     <absolute>
 0000:00000000       __hybrid_code_map          0000000000000000     <absolute>
 0000:00000000       __hybrid_code_map_count    0000000000000000     <absolute>
 0000:00000000       __guard_iat_count          0000000000000000     <absolute>
 0000:00000000       __hybrid_auxiliary_iat     0000000000000000     <absolute>
 0000:00000000       __guard_longjmp_table      0000000000000000     <absolute>
 0000:00000000       __guard_longjmp_count      0000000000000000     <absolute>
 0000:00000000       __guard_fids_count         0000000000000000     <absolute>
 0000:00000000       __enclave_config           0000000000000000     <absolute>
 0000:00000000       ___safe_se_handler_table   0000000000000000     <absolute>
 0000:00000000       ___safe_se_handler_count   0000000000000000     <absolute>
 0000:00000000       __guard_fids_table         0000000000000000     <absolute>
 0000:00000100       __guard_flags              0000000000000100     <absolute>
 0000:00000000       __ImageBase                0000000180000000     <linker-defined>
 0001:00000000       __xc_a                     0000000180001000     LIBCMT:initializers.obj
 0001:00000008       __xc_z                     0000000180001008     LIBCMT:initializers.obj
 0001:00000010       __xi_a                     0000000180001010     LIBCMT:initializers.obj
 0001:00000018       __acrt_multibyte_initializer 0000000180001018     libucrt:multibyte_initializer.obj
 0001:00000020       __acrt_stdio_initializer   0000000180001020     libucrt:stdio_initializer.obj
 0001:00000028       __acrt_tran_fma3_initializer 0000000180001028     libucrt:fma3_initializer.obj
 0001:00000030       __xi_z                     0000000180001030     LIBCMT:initializers.obj
 0001:00000038       __xp_a                     0000000180001038     LIBCMT:initializers.obj
 0001:00000040       __acrt_locale_terminator   0000000180001040     libucrt:locale_initializer.obj
 0001:00000048       __dcrt_console_output_terminator 0000000180001048     libucrt:console_output_initializer.obj
 0001:00000050       __acrt_stdio_terminator    0000000180001050     libucrt:stdio_initializer.obj
 0001:00000058       __xp_z                     0000000180001058     LIBCMT:initializers.obj
 0001:00000060       __xt_a                     0000000180001060     LIBCMT:initializers.obj
 0001:00000068       __xt_z                     0000000180001068     LIBCMT:initializers.obj
 0001:00000070       MainGuid                   0000000180001070     Network.obj
 0001:00000080       MenuGuid                   0000000180001080     Network.obj
 0001:00000090       ConfigDialogGuid           0000000180001090     Network.obj
 0001:000000a0       DisconnectDialogGuid       00000001800010a0     Network.obj
 0001:000000b0       UserPassDialogGuid         00000001800010b0     Network.obj
 0001:000000c0       ??_C@_1BA@IFBJBPAK@?$AAN?$AAe?$AAt?$AAw?$AAo?$AAr?$AAk?$AA?$AA@ 00000001800010c0     Network.obj
 0001:000000d0       ??_C@_1DO@KECGBOGC@?$AAN?$AAe?$AAt?$AAw?$AAo?$AAr?$AAk?$AA?5?$AAP?$AAl?$AAu?$AAg?$AAi?$AAn?$AA?5?$AAf?$AAo?$AAr?$AA?5?$AAF?$AAa?$AAr?$AA?5?$AAM?$AAa?$AAn?$AAa?$AAg?$AAe?$AAr?$AA?$AA@ 00000001800010d0     Network.obj
 0001:00000110       ??_C@_1DE@BGKMIKPD@?$AAE?$AAu?$AAg?$AAe?$AAn?$AAe?$AA?5?$AAR?$AAo?$AAs?$AAh?$AAa?$AAl?$AA?5?$AA?$CG?$AA?5?$AAF?$AAa?$AAr?$AA?5?$AAG?$AAr?$AAo?$AAu?$AAp?$AA?$AA@ 0000000180001110     Network.obj
 0001:00000144       ??_C@_15LEKKCGMK@?$AA?2?$AA?2?$AA?$AA@ 0000000180001144     Network.obj
 0001:00000150       ??_C@_19HNBCINPI@?$AAn?$AAe?$AAt?$AAg?$AA?$AA@ 0000000180001150     Network.obj
 0001:00000160       ??_C@_17ODNIDLDN@?$AAn?$AAe?$AAt?$AA?$AA@ 0000000180001160     Network.obj
 0001:00000168       ??_C@_1BO@NGDOFANC@?$AAA?$AAd?$AAd?$AAT?$AAo?$AAD?$AAi?$AAs?$AAk?$AAs?$AAM?$AAe?$AAn?$AAu?$AA?$AA@ 0000000180001168     NetCfg.obj
 0001:00000188       ??_C@_1CC@PNNAOHJC@?$AAA?$AAd?$AAd?$AAT?$AAo?$AAP?$AAl?$AAu?$AAg?$AAi?$AAn?$AAs?$AAM?$AAe?$AAn?$AAu?$AA?$AA@ 0000000180001188     NetCfg.obj
 0001:000001b0       ??_C@_1BC@ENICKDH@?$AAC?$AAo?$AAn?$AAt?$AAe?$AAn?$AAt?$AAs?$AA?$AA@ 00000001800011b0     NetCfg.obj
 0001:000001c8       ??_C@_1BK@KLHOCBFH@?$AAH?$AAi?$AAd?$AAd?$AAe?$AAn?$AAS?$AAh?$AAa?$AAr?$AAe?$AAs?$AA?$AA@ 00000001800011c8     NetCfg.obj
 0001:000001e8       ??_C@_1BK@BMPKBAI@?$AAS?$AAh?$AAo?$AAw?$AAP?$AAr?$AAi?$AAn?$AAt?$AAe?$AAr?$AAs?$AA?$AA@ 00000001800011e8     NetCfg.obj
 0001:00000208       ??_C@_1BK@IMMOFPGP@?$AAL?$AAo?$AAc?$AAa?$AAl?$AAN?$AAe?$AAt?$AAw?$AAo?$AAr?$AAk?$AA?$AA@ 0000000180001208     NetCfg.obj
 0001:00000228       ??_C@_1BO@ONNGHKLG@?$AAD?$AAi?$AAs?$AAc?$AAo?$AAn?$AAn?$AAe?$AAc?$AAt?$AAM?$AAo?$AAd?$AAe?$AA?$AA@ 0000000180001228     NetCfg.obj
 0001:00000248       ??_C@_1CC@DJEEMKIM@?$AAR?$AAe?$AAm?$AAo?$AAv?$AAe?$AAC?$AAo?$AAn?$AAn?$AAe?$AAc?$AAt?$AAi?$AAo?$AAn?$AA?$AA@ 0000000180001248     NetCfg.obj
 0001:00000270       ??_C@_1CK@LKLAIIEF@?$AAH?$AAi?$AAd?$AAd?$AAe?$AAn?$AAS?$AAh?$AAa?$AAr?$AAe?$AAs?$AAA?$AAs?$AAH?$AAi?$AAd?$AAd?$AAe?$AAn?$AA?$AA@ 0000000180001270     NetCfg.obj
 0001:000002a0       ??_C@_1BO@FLKJOEGH@?$AAF?$AAu?$AAl?$AAl?$AAP?$AAa?$AAt?$AAh?$AAS?$AAh?$AAa?$AAr?$AAe?$AAs?$AA?$AA@ 00000001800012a0     NetCfg.obj
 0001:000002c0       ??_C@_1BO@LADGPGKF@?$AAF?$AAa?$AAv?$AAo?$AAr?$AAi?$AAt?$AAe?$AAs?$AAF?$AAl?$AAa?$AAg?$AAs?$AA?$AA@ 00000001800012c0     NetCfg.obj
 0001:000002e0       ??_C@_1CE@DLMGFKCB@?$AAN?$AAo?$AAR?$AAo?$AAo?$AAt?$AAD?$AAo?$AAu?$AAb?$AAl?$AAe?$AAP?$AAo?$AAi?$AAn?$AAt?$AA?$AA@ 00000001800012e0     NetCfg.obj
 0001:00000308       ??_C@_1CE@JCLLPGFN@?$AAN?$AAa?$AAv?$AAi?$AAg?$AAa?$AAt?$AAe?$AAT?$AAo?$AAD?$AAo?$AAm?$AAa?$AAi?$AAn?$AAs?$AA?$AA@ 0000000180001308     NetCfg.obj
 0001:00000330       ??_C@_1BE@OMHKNOGL@?$AAP?$AAa?$AAn?$AAe?$AAl?$AAM?$AAo?$AAd?$AAe?$AA?$AA@ 0000000180001330     NetCfg.obj
 0001:00000348       ??_7?$DialogItemBinding@UFarDialogItem@@@@6B@ 0000000180001348     NetCfg.obj
 0001:00000358       ??_7PluginCheckBoxBinding@@6B@ 0000000180001358     NetCfg.obj
 0001:00000368       ??_7PluginRadioButtonBinding@@6B@ 0000000180001368     NetCfg.obj
 0001:00000378       ??_7PluginIntEditFieldBinding@@6B@ 0000000180001378     NetCfg.obj
 0001:00000388       ??_C@_15EFLNJKHH@?$AA?$CF?$AAu?$AA?$AA@ 0000000180001388     NetCfg.obj
 0001:00000390       ??_7PluginUIntEditFieldBinding@@6B@ 0000000180001390     NetCfg.obj
 0001:000003a0       ??_7?$DialogBuilderBase@UFarDialogItem@@@@6B@ 00000001800013a0     NetCfg.obj
 0001:000003e8       ??_7PluginDialogBuilder@@6B@ 00000001800013e8     NetCfg.obj
 0001:00000430       ??_C@_11LOCGONAA@?$AA?$AA@ 0000000180001430     NetCfg.obj
 0001:00000438       ??_C@_1O@BJPKKLLM@?$AAC?$AAo?$AAn?$AAf?$AAi?$AAg?$AA?$AA@ 0000000180001438     NetCfg.obj
 0001:00000448       ??_C@_1BC@EJKAECLA@?$AAn?$AAe?$AAt?$AA?3?$AAn?$AAe?$AAt?$AAg?$AA?$AA@ 0000000180001448     NetCfg.obj
 0001:00000460       __xmm@ffffffffffffffff0000000000000002 0000000180001460     NetCfg.obj
 0001:00000470       __xmm@ffffffffffffffffffffffffffffffff 0000000180001470     NetCfg.obj
 0001:00000490       ??_7PluginEditFieldBinding@@6B@ 0000000180001490     NetClass.obj
 0001:000004a0       ??_C@_13DMCFHHKM@?$AA3?$AA?$AA@ 00000001800014a0     NetClass.obj
 0001:000004a8       ??_C@_1M@DFKENGJN@?$AA?$CF?$AAs?$AA?2?$AA?$CF?$AAs?$AA?$AA@ 00000001800014a8     NetClass.obj
 0001:000004b4       ??_C@_13GGAHEHIG@?$AA?$AB?$AA?$AA@ 00000001800014b4     NetClass.obj
 0001:000004b8       ??_C@_13LBAGMAIH@?$AA?6?$AA?$AA@ 00000001800014b8     NetClass.obj
 0001:000004c0       ??_C@_1BG@PFLPMIKK@?$AAN?$AAe?$AAt?$AAw?$AAo?$AAr?$AAk?$AA?2?$AA?$CF?$AAc?$AA?$AA@ 00000001800014c0     NetClass.obj
 0001:000004d8       ??_C@_1CA@FPAJCONG@?$AAD?$AAi?$AAs?$AAc?$AAo?$AAn?$AAn?$AAe?$AAc?$AAt?$AAD?$AAr?$AAi?$AAv?$AAe?$AA?$AA@ 00000001800014d8     NetClass.obj
 0001:000004f8       ??_C@_1BC@BDJLNJKB@?$AA?5?$AA?$CF?$AAs?$AA?3?$AA?5?$AA?$CF?$AAs?$AA?5?$AA?$AA@ 00000001800014f8     NetClass.obj
 0001:00000510       ??_C@_1BA@LKKFCKCJ@?$AAN?$AA?0?$AAC?$AA0?$AA?0?$AAC?$AA1?$AA?$AA@ 0000000180001510     NetClass.obj
 0001:00000520       ??_C@_1M@ICMPIFCG@?$AA0?$AA?0?$AA2?$AA?0?$AA0?$AA?$AA@ 0000000180001520     NetClass.obj
 0001:00000530       ??_C@_19ELDIFHOA@?$AAN?$AA?0?$AAC?$AA0?$AA?$AA@ 0000000180001530     NetClass.obj
 0001:00000540       ??_C@_17DFFMIGIM@?$AA0?$AA?0?$AA2?$AA?$AA@ 0000000180001540     NetClass.obj
 0001:00000548       ??_C@_13FPGAJAPJ@?$AA?2?$AA?$AA@ 0000000180001548     NetClass.obj
 0001:0000054c       ??_C@_15DDHGOCBH@?$AA?4?$AA?4?$AA?$AA@ 000000018000154c     NetClass.obj
 0001:00000558       ??_C@_1BE@DEAPIJA@?$AAM?$AAi?$AAc?$AAr?$AAo?$AAs?$AAo?$AAf?$AAt?$AA?$AA@ 0000000180001558     NetClass.obj
 0001:00000570       ??_C@_1CC@FMHKFHHK@?$AAT?$AAh?$AAi?$AAs?$AA?5?$AAi?$AAs?$AA?5?$AAa?$AA?5?$AAd?$AAo?$AAm?$AAa?$AAi?$AAn?$AA?$AA@ 0000000180001570     NetClass.obj
 0001:00000598       ??_C@_19IEEMEPMH@?$AAD?$AAa?$AAt?$AAa?$AA?$AA@ 0000000180001598     NetClass.obj
 0001:000005a8       ??_C@_1CC@LMAEILBC@?$AAT?$AAh?$AAi?$AAs?$AA?5?$AAi?$AAs?$AA?5?$AAa?$AA?5?$AAS?$AAE?$AAR?$AAV?$AAE?$AAR?$AA?$AA@ 00000001800015a8     NetClass.obj
 0001:000005d0       ??_C@_19POFGONBN@?$AA?$CG?$AA?$CF?$AAc?$AA?3?$AA?$AA@ 00000001800015d0     NetClass.obj
 0001:000005dc       ??_C@_13EFKPHINO@?$AA?$EA?$AA?$AA@ 00000001800015dc     NetClass.obj
 0001:000005e0       ??_C@_1M@JNLNDDIN@?$AA?$CF?$AAT?$AAM?$AAP?$AA?$CF?$AA?$AA@ 00000001800015e0     NetClass.obj
 0001:000005f0       ??_C@_1BI@LJGELBNP@?$AAN?$AAe?$AAt?$AAw?$AAo?$AAr?$AAk?$AAU?$AAs?$AAe?$AAr?$AA?$AA@ 00000001800015f0     NetClass.obj
 0001:00000608       ??_C@_15PCEAIKAA@?$AA?4?$AA?2?$AA?$AA@ 0000000180001608     NetClass.obj
 0001:00000610       ??_C@_13HOIJIPNN@?$AA?5?$AA?$AA@ 0000000180001610     NetClass.obj
 0001:00000614       ??_C@_15JNBOKNOG@?$AA?$AN?$AA?6?$AA?$AA@ 0000000180001614     NetClass.obj
 0001:00000620       ??_C@_1BI@HGBMBLHP@?$AA?2?$AA?2?$AA?$DP?$AA?2?$AAU?$AAN?$AAC?$AA?$CF?$AAs?$AA?2?$AA?$CK?$AA?$AA@ 0000000180001620     NetClass.obj
 0001:00000638       ??_C@_19CDBNEOLI@?$AA?$CF?$AAs?$AA?2?$AA?$CK?$AA?$AA@ 0000000180001638     NetClass.obj
 0001:00000648       ??_C@_1BM@EONNLOAH@?$AAR?$AAe?$AAm?$AAo?$AAv?$AAe?$AAI?$AAt?$AAe?$AAm?$AAF?$AAa?$AAv?$AA?$AA@ 0000000180001648     NetClass.obj
 0001:00000668       ??_C@_1DA@CMNOOJGO@?$AAF?$AAa?$AAi?$AAl?$AAe?$AAd?$AA?5?$AAt?$AAo?$AA?5?$AAc?$AAr?$AAe?$AAa?$AAt?$AAe?$AA?5?$AAf?$AAo?$AAl?$AAd?$AAe?$AAr?$AA?$AA@ 0000000180001668     NetClass.obj
 0001:00000698       ??_C@_19INGAAIIO@?$AAI?$AAP?$AAC?$AA$?$AA?$AA@ 0000000180001698     NetClass.obj
 0001:000006a8       ??_C@_1BE@BIEMJOKH@?$AAN?$AAe?$AAw?$AAF?$AAo?$AAl?$AAd?$AAe?$AAr?$AA?$AA@ 00000001800016a8     NetCommon.obj
 0001:000006c0       ??_C@_1BK@LDEGEPBC@?$AAF?$AAo?$AAl?$AAd?$AAe?$AAr?$AA?5?$AAn?$AAa?$AAm?$AAe?$AA?3?$AA?$AA@ 00000001800016c0     NetCommon.obj
 0001:000006e0       ??_C@_1BI@PJIFJHLI@?$AAM?$AAa?$AAk?$AAe?$AA?5?$AAF?$AAo?$AAl?$AAd?$AAe?$AAr?$AA?$AA@ 00000001800016e0     NetCommon.obj
 0001:000006f8       ??_C@_15MNCACJLI@?$AA?2?$AA?1?$AA?$AA@ 00000001800016f8     NetFavorites.obj
 0001:00000700       ??_C@_1BK@GCNMKDHP@?$AAF?$AAa?$AAv?$AAo?$AAr?$AAi?$AAt?$AAe?$AAs?$AA?2?$AA?$CF?$AAs?$AA?$AA@ 0000000180001700     NetFavorites.obj
 0001:00000720       ??_C@_1BE@PDPMPIAC@?$AAF?$AAa?$AAv?$AAo?$AAr?$AAi?$AAt?$AAe?$AAs?$AA?$AA@ 0000000180001720     NetFavorites.obj
 0001:00000738       _pRawDllMain               0000000180001738     LIBCMT:dll_dllmain.obj
 0001:00000738       _pDefaultRawDllMain        0000000180001738     LIBCMT:dll_dllmain.obj
 0001:00000748       ??_7exception@std@@6B@     0000000180001748     LIBCMT:throw_bad_alloc.obj
 0001:00000758       ??_C@_0BC@EOODALEL@Unknown?5exception?$AA@ 0000000180001758     LIBCMT:throw_bad_alloc.obj
 0001:00000778       ??_7bad_alloc@std@@6B@     0000000180001778     LIBCMT:throw_bad_alloc.obj
 0001:00000788       ??_C@_0P@GHFPNOJB@bad?5allocation?$AA@ 0000000180001788     LIBCMT:throw_bad_alloc.obj
 0001:000007a0       ??_7bad_array_new_length@std@@6B@ 00000001800017a0     LIBCMT:throw_bad_alloc.obj
 0001:000007b0       ??_C@_0BF@KINCDENJ@bad?5array?5new?5length?$AA@ 00000001800017b0     LIBCMT:throw_bad_alloc.obj
 0001:000007d0       ??_7type_info@@6B@         00000001800017d0     LIBCMT:std_type_info_static.obj
 0001:00000b50       ??_C@_08EHJDFFNH@__based?$CI?$AA@ 0000000180001b50     libvcruntime:undname.obj
 0001:00000b60       ??_C@_07KOLFKCDI@__cdecl?$AA@ 0000000180001b60     libvcruntime:undname.obj
 0001:00000b68       ??_C@_08GHMPAG@__pascal?$AA@ 0000000180001b68     libvcruntime:undname.obj
 0001:00000b78       ??_C@_09IFJBGAPI@__stdcall?$AA@ 0000000180001b78     libvcruntime:undname.obj
 0001:00000b88       ??_C@_0L@NPHFGOKO@__thiscall?$AA@ 0000000180001b88     libvcruntime:undname.obj
 0001:00000b98       ??_C@_0L@JMKHOMEK@__fastcall?$AA@ 0000000180001b98     libvcruntime:undname.obj
 0001:00000ba8       ??_C@_0N@BCKKPABJ@__vectorcall?$AA@ 0000000180001ba8     libvcruntime:undname.obj
 0001:00000bb8       ??_C@_09HIJEGCPM@__clrcall?$AA@ 0000000180001bb8     libvcruntime:undname.obj
 0001:00000bc4       ??_C@_06GHPCKEAG@__eabi?$AA@ 0000000180001bc4     libvcruntime:undname.obj
 0001:00000bd0       ??_C@_07EECFKIPL@__swift?$AA@ 0000000180001bd0     libvcruntime:undname.obj
 0001:00000bd8       ??_C@_07JOMMBBKO@__ptr64?$AA@ 0000000180001bd8     libvcruntime:undname.obj
 0001:00000be0       ??_C@_0L@PILCLIHE@__restrict?$AA@ 0000000180001be0     libvcruntime:undname.obj
 0001:00000bf0       ??_C@_0M@GFIIJFMG@__unaligned?$AA@ 0000000180001bf0     libvcruntime:undname.obj
 0001:00000c00       ??_C@_09DHDLOLLB@restrict?$CI?$AA@ 0000000180001c00     libvcruntime:undname.obj
 0001:00000c0a       ??_C@_00CNPNBAHC@?$AA@     0000000180001c0a     libvcruntime:undname.obj
 0001:00000c0c       ??_C@_04NIHEBCM@?5new?$AA@ 0000000180001c0c     libvcruntime:undname.obj
 0001:00000c18       ??_C@_07FPCDHGMM@?5delete?$AA@ 0000000180001c18     libvcruntime:undname.obj
 0001:00000c20       ??_C@_01NEMOKFLO@?$DN?$AA@ 0000000180001c20     libvcruntime:undname.obj
 0001:00000c24       ??_C@_02GPIOPFAK@?$DO?$DO?$AA@ 0000000180001c24     libvcruntime:undname.obj
 0001:00000c28       ??_C@_02FODMEDOG@?$DM?$DM?$AA@ 0000000180001c28     libvcruntime:undname.obj
 0001:00000c2c       ??_C@_01DCLJPIOD@?$CB?$AA@ 0000000180001c2c     libvcruntime:undname.obj
 0001:00000c30       ??_C@_02EGOFBIJA@?$DN?$DN?$AA@ 0000000180001c30     libvcruntime:undname.obj
 0001:00000c34       ??_C@_02FDNJECIE@?$CB?$DN?$AA@ 0000000180001c34     libvcruntime:undname.obj
 0001:00000c38       ??_C@_02GPECMEKF@?$FL?$FN?$AA@ 0000000180001c38     libvcruntime:undname.obj
 0001:00000c40       ??_C@_08LHJFAFGD@operator?$AA@ 0000000180001c40     libvcruntime:undname.obj
 0001:00000c4c       ??_C@_02HBOOOICD@?9?$DO?$AA@ 0000000180001c4c     libvcruntime:undname.obj
 0001:00000c50       ??_C@_01NBENCBCI@?$CK?$AA@ 0000000180001c50     libvcruntime:undname.obj
 0001:00000c54       ??_C@_02ECNGHCIF@?$CL?$CL?$AA@ 0000000180001c54     libvcruntime:undname.obj
 0001:00000c58       ??_C@_02BAABKJLB@?9?9?$AA@ 0000000180001c58     libvcruntime:undname.obj
 0001:00000c5c       ??_C@_01JOAMLHOP@?9?$AA@   0000000180001c5c     libvcruntime:undname.obj
 0001:00000c60       ??_C@_01MIFGBAGJ@?$CL?$AA@ 0000000180001c60     libvcruntime:undname.obj
 0001:00000c64       ??_C@_01HNPIGOCE@?$CG?$AA@ 0000000180001c64     libvcruntime:undname.obj
 0001:00000c68       ??_C@_03MNHNFDLC@?9?$DO?$CK?$AA@ 0000000180001c68     libvcruntime:undname.obj
 0001:00000c6c       ??_C@_01KMDKNFGN@?1?$AA@   0000000180001c6c     libvcruntime:undname.obj
 0001:00000c70       ??_C@_01FGNFDNOH@?$CF?$AA@ 0000000180001c70     libvcruntime:undname.obj
 0001:00000c74       ??_C@_01MNNFJEPP@?$DM?$AA@ 0000000180001c74     libvcruntime:undname.obj
 0001:00000c78       ??_C@_02EHCHHCKH@?$DM?$DN?$AA@ 0000000180001c78     libvcruntime:undname.obj
 0001:00000c7c       ??_C@_01PPODPGHN@?$DO?$AA@ 0000000180001c7c     libvcruntime:undname.obj
 0001:00000c80       ??_C@_02EEKDKGMJ@?$DO?$DN?$AA@ 0000000180001c80     libvcruntime:undname.obj
 0001:00000c84       ??_C@_01IHBHIGKO@?0?$AA@   0000000180001c84     libvcruntime:undname.obj
 0001:00000c88       ??_C@_02HCKGKOFO@?$CI?$CJ?$AA@ 0000000180001c88     libvcruntime:undname.obj
 0001:00000c8c       ??_C@_01PJKLJHI@?$HO?$AA@  0000000180001c8c     libvcruntime:undname.obj
 0001:00000c90       ??_C@_01JKBOJNNK@?$FO?$AA@ 0000000180001c90     libvcruntime:undname.obj
 0001:00000c94       ??_C@_01DNKMNLPK@?$HM?$AA@ 0000000180001c94     libvcruntime:undname.obj
 0001:00000c98       ??_C@_02PPKAJPJL@?$CG?$CG?$AA@ 0000000180001c98     libvcruntime:undname.obj
 0001:00000c9c       ??_C@_02NONPIBCD@?$HM?$HM?$AA@ 0000000180001c9c     libvcruntime:undname.obj
 0001:00000ca0       ??_C@_02FPIMKNGF@?$CK?$DN?$AA@ 0000000180001ca0     libvcruntime:undname.obj
 0001:00000ca4       ??_C@_02FOEOMHFC@?$CL?$DN?$AA@ 0000000180001ca4     libvcruntime:undname.obj
 0001:00000ca8       ??_C@_02FKMDLLOA@?9?$DN?$AA@ 0000000180001ca8     libvcruntime:undname.obj
 0001:00000cac       ??_C@_02FJEHGPIO@?1?$DN?$AA@ 0000000180001cac     libvcruntime:undname.obj
 0001:00000cb0       ??_C@_02FENAOKFI@?$CF?$DN?$AA@ 0000000180001cb0     libvcruntime:undname.obj
 0001:00000cb4       ??_C@_03IKFCCPFF@?$DO?$DO?$DN?$AA@ 0000000180001cb4     libvcruntime:undname.obj
 0001:00000cb8       ??_C@_03CDNPDDLA@?$DM?$DM?$DN?$AA@ 0000000180001cb8     libvcruntime:undname.obj
 0001:00000cbc       ??_C@_02FGJGFEAB@?$CG?$DN?$AA@ 0000000180001cbc     libvcruntime:undname.obj
 0001:00000cc0       ??_C@_02DHLNPPGH@?$HM?$DN?$AA@ 0000000180001cc0     libvcruntime:undname.obj
 0001:00000cc4       ??_C@_02MHEGNOJ@?$FO?$DN?$AA@ 0000000180001cc4     libvcruntime:undname.obj
 0001:00000cc8       ??_C@_09IFPLHPGF@?$GAvftable?8?$AA@ 0000000180001cc8     libvcruntime:undname.obj
 0001:00000cd8       ??_C@_09BLBHBJP@?$GAvbtable?8?$AA@ 0000000180001cd8     libvcruntime:undname.obj
 0001:00000ce8       ??_C@_07FEEIOKP@?$GAvcall?8?$AA@ 0000000180001ce8     libvcruntime:undname.obj
 0001:00000cf0       ??_C@_08LLFFHHDJ@?$GAtypeof?8?$AA@ 0000000180001cf0     libvcruntime:undname.obj
 0001:00000d00       ??_C@_0BF@KDPPACIK@?$GAlocal?5static?5guard?8?$AA@ 0000000180001d00     libvcruntime:undname.obj
 0001:00000d18       ??_C@_08OBABFOLI@?$GAstring?8?$AA@ 0000000180001d18     libvcruntime:undname.obj
 0001:00000d28       ??_C@_0BD@JDLKDPAB@?$GAvbase?5destructor?8?$AA@ 0000000180001d28     libvcruntime:undname.obj
 0001:00000d40       ??_C@_0BN@DEGPLNFK@?$GAvector?5deleting?5destructor?8?$AA@ 0000000180001d40     libvcruntime:undname.obj
 0001:00000d60       ??_C@_0BO@OBMKPJIG@?$GAdefault?5constructor?5closure?8?$AA@ 0000000180001d60     libvcruntime:undname.obj
 0001:00000d80       ??_C@_0BN@IMDCHIKM@?$GAscalar?5deleting?5destructor?8?$AA@ 0000000180001d80     libvcruntime:undname.obj
 0001:00000da0       ??_C@_0BO@PFGOCPJJ@?$GAvector?5constructor?5iterator?8?$AA@ 0000000180001da0     libvcruntime:undname.obj
 0001:00000dc0       ??_C@_0BN@LFPFMEDL@?$GAvector?5destructor?5iterator?8?$AA@ 0000000180001dc0     libvcruntime:undname.obj
 0001:00000de0       ??_C@_0CE@IKBNEHA@?$GAvector?5vbase?5constructor?5iterat@ 0000000180001de0     libvcruntime:undname.obj
 0001:00000e08       ??_C@_0BL@NILFHHPC@?$GAvirtual?5displacement?5map?8?$AA@ 0000000180001e08     libvcruntime:undname.obj
 0001:00000e28       ??_C@_0CB@JONCMFFK@?$GAeh?5vector?5constructor?5iterator?8@ 0000000180001e28     libvcruntime:undname.obj
 0001:00000e50       ??_C@_0CA@GCEOPDGL@?$GAeh?5vector?5destructor?5iterator?8?$AA@ 0000000180001e50     libvcruntime:undname.obj
 0001:00000e70       ??_C@_0CH@OOJPLCPH@?$GAeh?5vector?5vbase?5constructor?5ite@ 0000000180001e70     libvcruntime:undname.obj
 0001:00000e98       ??_C@_0BL@LLKPOHJI@?$GAcopy?5constructor?5closure?8?$AA@ 0000000180001e98     libvcruntime:undname.obj
 0001:00000eb8       ??_C@_0BA@KBCDOMBN@?$GAudt?5returning?8?$AA@ 0000000180001eb8     libvcruntime:undname.obj
 0001:00000ec8       ??_C@_03KLGMFNMG@?$GAEH?$AA@ 0000000180001ec8     libvcruntime:undname.obj
 0001:00000ecc       ??_C@_05KHLCHHI@?$GARTTI?$AA@ 0000000180001ecc     libvcruntime:undname.obj
 0001:00000ed8       ??_C@_0BA@KKLDJDLB@?$GAlocal?5vftable?8?$AA@ 0000000180001ed8     libvcruntime:undname.obj
 0001:00000ee8       ??_C@_0CE@IIHCMGGL@?$GAlocal?5vftable?5constructor?5closu@ 0000000180001ee8     libvcruntime:undname.obj
 0001:00000f0c       ??_C@_06FHBGPFGH@?5new?$FL?$FN?$AA@ 0000000180001f0c     libvcruntime:undname.obj
 0001:00000f18       ??_C@_09LBNFPBCA@?5delete?$FL?$FN?$AA@ 0000000180001f18     libvcruntime:undname.obj
 0001:00000f28       ??_C@_0P@HJKNJFNN@?$GAomni?5callsig?8?$AA@ 0000000180001f28     libvcruntime:undname.obj
 0001:00000f38       ??_C@_0BL@CNOONJFP@?$GAplacement?5delete?5closure?8?$AA@ 0000000180001f38     libvcruntime:undname.obj
 0001:00000f58       ??_C@_0BN@CKNJLHMB@?$GAplacement?5delete?$FL?$FN?5closure?8?$AA@ 0000000180001f58     libvcruntime:undname.obj
 0001:00000f78       ??_C@_0CG@CFDHKGGD@?$GAmanaged?5vector?5constructor?5iter@ 0000000180001f78     libvcruntime:undname.obj
 0001:00000fa0       ??_C@_0CF@IMGKMJNO@?$GAmanaged?5vector?5destructor?5itera@ 0000000180001fa0     libvcruntime:undname.obj
 0001:00000fc8       ??_C@_0CG@HLDDJMAG@?$GAeh?5vector?5copy?5constructor?5iter@ 0000000180001fc8     libvcruntime:undname.obj
 0001:00000ff0       ??_C@_0CM@FCBBDIGB@?$GAeh?5vector?5vbase?5copy?5constructo@ 0000000180001ff0     libvcruntime:undname.obj
 0001:00001020       ??_C@_0BL@CLIPGLGB@?$GAdynamic?5initializer?5for?5?8?$AA@ 0000000180002020     libvcruntime:undname.obj
 0001:00001040       ??_C@_0CB@PDBIFEP@?$GAdynamic?5atexit?5destructor?5for?5?8@ 0000000180002040     libvcruntime:undname.obj
 0001:00001068       ??_C@_0CD@CGAJBKEJ@?$GAvector?5copy?5constructor?5iterato@ 0000000180002068     libvcruntime:undname.obj
 0001:00001090       ??_C@_0CJ@GJELGAMM@?$GAvector?5vbase?5copy?5constructor?5i@ 0000000180002090     libvcruntime:undname.obj
 0001:000010c0       ??_C@_0CL@FGIJHLCE@?$GAmanaged?5vector?5copy?5constructor@ 00000001800020c0     libvcruntime:undname.obj
 0001:000010f0       ??_C@_0BM@PMGGMLDN@?$GAlocal?5static?5thread?5guard?8?$AA@ 00000001800020f0     libvcruntime:undname.obj
 0001:00001110       ??_C@_0N@BDNMDMOL@operator?5?$CC?$CC?5?$AA@ 0000000180002110     libvcruntime:undname.obj
 0001:00001120       ??_C@_0BC@GGEBGALA@operator?5co_await?$AA@ 0000000180002120     libvcruntime:undname.obj
 0001:00001138       ??_C@_0BC@DAFEJGAK@?5Type?5Descriptor?8?$AA@ 0000000180002138     libvcruntime:undname.obj
 0001:00001150       ??_C@_0BM@LDKODKLH@?5Base?5Class?5Descriptor?5at?5?$CI?$AA@ 0000000180002150     libvcruntime:undname.obj
 0001:00001170       ??_C@_0BD@LGICGFMM@?5Base?5Class?5Array?8?$AA@ 0000000180002170     libvcruntime:undname.obj
 0001:00001188       ??_C@_0BN@MECKDCOJ@?5Class?5Hierarchy?5Descriptor?8?$AA@ 0000000180002188     libvcruntime:undname.obj
 0001:000011a8       ??_C@_0BK@CFCOFLF@?5Complete?5Object?5Locator?8?$AA@ 00000001800021a8     libvcruntime:undname.obj
 0001:000011e0       ??_C@_1DM@KHCHBNEB@?$AAa?$AAp?$AAi?$AA?9?$AAm?$AAs?$AA?9?$AAw?$AAi?$AAn?$AA?9?$AAc?$AAo?$AAr?$AAe?$AA?9?$AAf?$AAi?$AAb?$AAe?$AAr?$AAs?$AA?9?$AAl?$AA1?$AA?9?$AA1?$AA?9?$AA1?$AA?$AA@ 00000001800021e0     libvcruntime:winapi_downlevel.obj
 0001:00001220       ??_C@_1DK@LPPGFMPP@?$AAa?$AAp?$AAi?$AA?9?$AAm?$AAs?$AA?9?$AAw?$AAi?$AAn?$AA?9?$AAc?$AAo?$AAr?$AAe?$AA?9?$AAs?$AAy?$AAn?$AAc?$AAh?$AA?9?$AAl?$AA1?$AA?9?$AA2?$AA?9?$AA0?$AA?$AA@ 0000000180002220     libvcruntime:winapi_downlevel.obj
 0001:00001260       ??_C@_1BC@GDMECMAK@?$AAk?$AAe?$AAr?$AAn?$AAe?$AAl?$AA3?$AA2?$AA?$AA@ 0000000180002260     libvcruntime:winapi_downlevel.obj
 0001:00001278       ??_C@_1BA@PFFKHIOG@?$AAa?$AAp?$AAi?$AA?9?$AAm?$AAs?$AA?9?$AA?$AA@ 0000000180002278     libvcruntime:winapi_downlevel.obj
 0001:00001288       ??_C@_1BA@IAIFMGEF@?$AAe?$AAx?$AAt?$AA?9?$AAm?$AAs?$AA?9?$AA?$AA@ 0000000180002288     libvcruntime:winapi_downlevel.obj
 0001:000012a0       ??_C@_08KNHFBNJ@FlsAlloc?$AA@ 00000001800022a0     libvcruntime:winapi_downlevel.obj
 0001:000012b8       ??_C@_07PEJMOBNF@FlsFree?$AA@ 00000001800022b8     libvcruntime:winapi_downlevel.obj
 0001:000012c8       ??_C@_0M@GDNOONDI@FlsGetValue?$AA@ 00000001800022c8     libvcruntime:winapi_downlevel.obj
 0001:000012e0       ??_C@_0M@JCPCPOEF@FlsSetValue?$AA@ 00000001800022e0     libvcruntime:winapi_downlevel.obj
 0001:000012f8       ??_C@_0BM@HCFOFFN@InitializeCriticalSectionEx?$AA@ 00000001800022f8     libvcruntime:winapi_downlevel.obj
 0001:00001318       _pDestructExceptionObject  0000000180002318     libvcruntime:ehhelpers.obj
 0001:00001320       __acrt_exception_action_table 0000000180002320     libucrt:exception_filter.obj
 0001:000013e0       __acrt_signal_action_table_count 00000001800023e0     libucrt:exception_filter.obj
 0001:000013e8       __acrt_signal_action_first_fpe_index 00000001800023e8     libucrt:exception_filter.obj
 0001:000013f0       __acrt_signal_action_fpe_count 00000001800023f0     libucrt:exception_filter.obj
 0001:000013f8       ??_C@_1BI@BGOHAHKC@?$AAm?$AAs?$AAc?$AAo?$AAr?$AAe?$AAe?$AA?4?$AAd?$AAl?$AAl?$AA?$AA@ 00000001800023f8     libucrt:exit.obj
 0001:00001410       ??_C@_0P@MIGLKIOC@CorExitProcess?$AA@ 0000000180002410     libucrt:exit.obj
 0001:000016a0       ??_C@_1M@HPNHIDJI@?$AAj?$AAa?$AA?9?$AAJ?$AAP?$AA?$AA@ 00000001800026a0     libucrt:mbctype.obj
 0001:000016b0       ??_C@_1M@BIBDDEMK@?$AAz?$AAh?$AA?9?$AAC?$AAN?$AA?$AA@ 00000001800026b0     libucrt:mbctype.obj
 0001:000016c0       ??_C@_1M@JLOOOEGK@?$AAk?$AAo?$AA?9?$AAK?$AAR?$AA?$AA@ 00000001800026c0     libucrt:mbctype.obj
 0001:000016d0       ??_C@_1M@CLNBBOPM@?$AAz?$AAh?$AA?9?$AAT?$AAW?$AA?$AA@ 00000001800026d0     libucrt:mbctype.obj
 0001:00001780       ??_C@_1EA@JGEFHKEI@?$AAa?$AAp?$AAi?$AA?9?$AAm?$AAs?$AA?9?$AAw?$AAi?$AAn?$AA?9?$AAc?$AAo?$AAr?$AAe?$AA?9?$AAd?$AAa?$AAt?$AAe?$AAt?$AAi?$AAm?$AAe?$AA?9?$AAl?$AA1?$AA?9?$AA1?$AA?9?$AA1?$AA?$AA@ 0000000180002780     libucrt:winapi_thunks.obj
 0001:000017c0       ??_C@_1DI@IJCEHOCB@?$AAa?$AAp?$AAi?$AA?9?$AAm?$AAs?$AA?9?$AAw?$AAi?$AAn?$AA?9?$AAc?$AAo?$AAr?$AAe?$AA?9?$AAf?$AAi?$AAl?$AAe?$AA?9?$AAl?$AA1?$AA?9?$AA2?$AA?9?$AA2?$AA?$AA@ 00000001800027c0     libucrt:winapi_thunks.obj
 0001:00001800       ??_C@_1EI@MPIAOHOC@?$AAa?$AAp?$AAi?$AA?9?$AAm?$AAs?$AA?9?$AAw?$AAi?$AAn?$AA?9?$AAc?$AAo?$AAr?$AAe?$AA?9?$AAl?$AAo?$AAc?$AAa?$AAl?$AAi?$AAz?$AAa?$AAt?$AAi?$AAo?$AAn?$AA?9?$AAl?$AA1?$AA?9@ 0000000180002800     libucrt:winapi_thunks.obj
 0001:00001850       ??_C@_1FK@FPHCKFIE@?$AAa?$AAp?$AAi?$AA?9?$AAm?$AAs?$AA?9?$AAw?$AAi?$AAn?$AA?9?$AAc?$AAo?$AAr?$AAe?$AA?9?$AAl?$AAo?$AAc?$AAa?$AAl?$AAi?$AAz?$AAa?$AAt?$AAi?$AAo?$AAn?$AA?9?$AAo?$AAb?$AAs@ 0000000180002850     libucrt:winapi_thunks.obj
 0001:000018b0       ??_C@_1EM@DILCGIIO@?$AAa?$AAp?$AAi?$AA?9?$AAm?$AAs?$AA?9?$AAw?$AAi?$AAn?$AA?9?$AAc?$AAo?$AAr?$AAe?$AA?9?$AAp?$AAr?$AAo?$AAc?$AAe?$AAs?$AAs?$AAt?$AAh?$AAr?$AAe?$AAa?$AAd?$AAs?$AA?9?$AAl@ 00000001800028b0     libucrt:winapi_thunks.obj
 0001:00001900       ??_C@_1DM@LNCGDDPN@?$AAa?$AAp?$AAi?$AA?9?$AAm?$AAs?$AA?9?$AAw?$AAi?$AAn?$AA?9?$AAc?$AAo?$AAr?$AAe?$AA?9?$AAs?$AAt?$AAr?$AAi?$AAn?$AAg?$AA?9?$AAl?$AA1?$AA?9?$AA1?$AA?9?$AA0?$AA?$AA@ 0000000180002900     libucrt:winapi_thunks.obj
 0001:00001940       ??_C@_1DO@FPAPJEMD@?$AAa?$AAp?$AAi?$AA?9?$AAm?$AAs?$AA?9?$AAw?$AAi?$AAn?$AA?9?$AAc?$AAo?$AAr?$AAe?$AA?9?$AAs?$AAy?$AAs?$AAi?$AAn?$AAf?$AAo?$AA?9?$AAl?$AA1?$AA?9?$AA2?$AA?9?$AA1?$AA?$AA@ 0000000180002940     libucrt:winapi_thunks.obj
 0001:00001980       ??_C@_1DK@NDHNAHIO@?$AAa?$AAp?$AAi?$AA?9?$AAm?$AAs?$AA?9?$AAw?$AAi?$AAn?$AA?9?$AAc?$AAo?$AAr?$AAe?$AA?9?$AAw?$AAi?$AAn?$AAr?$AAt?$AA?9?$AAl?$AA1?$AA?9?$AA1?$AA?9?$AA0?$AA?$AA@ 0000000180002980     libucrt:winapi_thunks.obj
 0001:000019c0       ??_C@_1DM@KGHDGBCM@?$AAa?$AAp?$AAi?$AA?9?$AAm?$AAs?$AA?9?$AAw?$AAi?$AAn?$AA?9?$AAc?$AAo?$AAr?$AAe?$AA?9?$AAx?$AAs?$AAt?$AAa?$AAt?$AAe?$AA?9?$AAl?$AA2?$AA?9?$AA1?$AA?9?$AA0?$AA?$AA@ 00000001800029c0     libucrt:winapi_thunks.obj
 0001:00001a00       ??_C@_1EO@IJIOEFOH@?$AAa?$AAp?$AAi?$AA?9?$AAm?$AAs?$AA?9?$AAw?$AAi?$AAn?$AA?9?$AAr?$AAt?$AAc?$AAo?$AAr?$AAe?$AA?9?$AAn?$AAt?$AAu?$AAs?$AAe?$AAr?$AA?9?$AAw?$AAi?$AAn?$AAd?$AAo?$AAw?$AA?9@ 0000000180002a00     libucrt:winapi_thunks.obj
 0001:00001a50       ??_C@_1FG@HHGEKANL@?$AAa?$AAp?$AAi?$AA?9?$AAm?$AAs?$AA?9?$AAw?$AAi?$AAn?$AA?9?$AAs?$AAe?$AAc?$AAu?$AAr?$AAi?$AAt?$AAy?$AA?9?$AAs?$AAy?$AAs?$AAt?$AAe?$AAm?$AAf?$AAu?$AAn?$AAc?$AAt?$AAi@ 0000000180002a50     libucrt:winapi_thunks.obj
 0001:00001ab0       ??_C@_1EG@DBIOJECG@?$AAe?$AAx?$AAt?$AA?9?$AAm?$AAs?$AA?9?$AAw?$AAi?$AAn?$AA?9?$AAn?$AAt?$AAu?$AAs?$AAe?$AAr?$AA?9?$AAd?$AAi?$AAa?$AAl?$AAo?$AAg?$AAb?$AAo?$AAx?$AA?9?$AAl?$AA1?$AA?9?$AA1@ 0000000180002ab0     libucrt:winapi_thunks.obj
 0001:00001b00       ??_C@_1EO@FIHMJCLF@?$AAe?$AAx?$AAt?$AA?9?$AAm?$AAs?$AA?9?$AAw?$AAi?$AAn?$AA?9?$AAn?$AAt?$AAu?$AAs?$AAe?$AAr?$AA?9?$AAw?$AAi?$AAn?$AAd?$AAo?$AAw?$AAs?$AAt?$AAa?$AAt?$AAi?$AAo?$AAn?$AA?9@ 0000000180002b00     libucrt:winapi_thunks.obj
 0001:00001b50       ??_C@_1BC@DNHGCMLG@?$AAa?$AAd?$AAv?$AAa?$AAp?$AAi?$AA3?$AA2?$AA?$AA@ 0000000180002b50     libucrt:winapi_thunks.obj
 0001:00001b68       ??_C@_1M@OAIMIKLP@?$AAn?$AAt?$AAd?$AAl?$AAl?$AA?$AA@ 0000000180002b68     libucrt:winapi_thunks.obj
 0001:00001b80       ??_C@_1EG@DPGNFKGC@?$AAa?$AAp?$AAi?$AA?9?$AAm?$AAs?$AA?9?$AAw?$AAi?$AAn?$AA?9?$AAa?$AAp?$AAp?$AAm?$AAo?$AAd?$AAe?$AAl?$AA?9?$AAr?$AAu?$AAn?$AAt?$AAi?$AAm?$AAe?$AA?9?$AAl?$AA1?$AA?9?$AA1@ 0000000180002b80     libucrt:winapi_thunks.obj
 0001:00001bc8       ??_C@_1O@BCCLBEOE@?$AAu?$AAs?$AAe?$AAr?$AA3?$AA2?$AA?$AA@ 0000000180002bc8     libucrt:winapi_thunks.obj
 0001:00001c08       ??_C@_0O@KKBNKAPF@LCMapStringEx?$AA@ 0000000180002c08     libucrt:winapi_thunks.obj
 0001:00001c20       ??_C@_0BB@HBDEELFH@LocaleNameToLCID?$AA@ 0000000180002c20     libucrt:winapi_thunks.obj
 0001:00001c38       ??_C@_0CF@OJOFEIGO@AppPolicyGetProcessTerminationMe@ 0000000180002c38     libucrt:winapi_thunks.obj
 0001:00001c60       __lc_time_c                0000000180002c60     libucrt:nlsdata.obj
 0001:00001f20       ??_C@_03KOEHGMDN@Sun?$AA@  0000000180002f20     libucrt:nlsdata.obj
 0001:00001f24       ??_C@_03PDAGKDH@Mon?$AA@   0000000180002f24     libucrt:nlsdata.obj
 0001:00001f28       ??_C@_03NAGEINEP@Tue?$AA@  0000000180002f28     libucrt:nlsdata.obj
 0001:00001f2c       ??_C@_03MHOMLAJA@Wed?$AA@  0000000180002f2c     libucrt:nlsdata.obj
 0001:00001f30       ??_C@_03IOFIKPDN@Thu?$AA@  0000000180002f30     libucrt:nlsdata.obj
 0001:00001f34       ??_C@_03IDIOELNC@Fri?$AA@  0000000180002f34     libucrt:nlsdata.obj
 0001:00001f38       ??_C@_03FEFJNEK@Sat?$AA@   0000000180002f38     libucrt:nlsdata.obj
 0001:00001f3c       ??_C@_06OOPIFAJ@Sunday?$AA@ 0000000180002f3c     libucrt:nlsdata.obj
 0001:00001f44       ??_C@_06JLEDEDGH@Monday?$AA@ 0000000180002f44     libucrt:nlsdata.obj
 0001:00001f50       ??_C@_07BAAGCFCM@Tuesday?$AA@ 0000000180002f50     libucrt:nlsdata.obj
 0001:00001f58       ??_C@_09DLIGFAKA@Wednesday?$AA@ 0000000180002f58     libucrt:nlsdata.obj
 0001:00001f68       ??_C@_08HACCIKIA@Thursday?$AA@ 0000000180002f68     libucrt:nlsdata.obj
 0001:00001f74       ??_C@_06JECMNKMI@Friday?$AA@ 0000000180002f74     libucrt:nlsdata.obj
 0001:00001f80       ??_C@_08INBOOONO@Saturday?$AA@ 0000000180002f80     libucrt:nlsdata.obj
 0001:00001f8c       ??_C@_03JIHJHPIE@Jan?$AA@  0000000180002f8c     libucrt:nlsdata.obj
 0001:00001f90       ??_C@_03HJBDCHOM@Feb?$AA@  0000000180002f90     libucrt:nlsdata.obj
 0001:00001f94       ??_C@_03ODNJBKGA@Mar?$AA@  0000000180002f94     libucrt:nlsdata.obj
 0001:00001f98       ??_C@_03LEOLGMJP@Apr?$AA@  0000000180002f98     libucrt:nlsdata.obj
 0001:00001f9c       ??_C@_03CNMDKL@May?$AA@    0000000180002f9c     libucrt:nlsdata.obj
 0001:00001fa0       ??_C@_03IDFGHECI@Jun?$AA@  0000000180002fa0     libucrt:nlsdata.obj
 0001:00001fa4       ??_C@_03LBGABGKK@Jul?$AA@  0000000180002fa4     libucrt:nlsdata.obj
 0001:00001fa8       ??_C@_03IFJFEIGA@Aug?$AA@  0000000180002fa8     libucrt:nlsdata.obj
 0001:00001fac       ??_C@_03GGCAPAJC@Sep?$AA@  0000000180002fac     libucrt:nlsdata.obj
 0001:00001fb0       ??_C@_03BMAOKBAD@Oct?$AA@  0000000180002fb0     libucrt:nlsdata.obj
 0001:00001fb4       ??_C@_03JPJOFNIA@Nov?$AA@  0000000180002fb4     libucrt:nlsdata.obj
 0001:00001fb8       ??_C@_03MKABNOCG@Dec?$AA@  0000000180002fb8     libucrt:nlsdata.obj
 0001:00001fc0       ??_C@_07CGJPFGJA@January?$AA@ 0000000180002fc0     libucrt:nlsdata.obj
 0001:00001fc8       ??_C@_08GNJGEPFN@February?$AA@ 0000000180002fc8     libucrt:nlsdata.obj
 0001:00001fd4       ??_C@_05HPCKOFNC@March?$AA@ 0000000180002fd4     libucrt:nlsdata.obj
 0001:00001fdc       ??_C@_05DMJDNLEJ@April?$AA@ 0000000180002fdc     libucrt:nlsdata.obj
 0001:00001fe4       ??_C@_04CNLMGBGM@June?$AA@ 0000000180002fe4     libucrt:nlsdata.obj
 0001:00001fec       ??_C@_04MIEPOIFP@July?$AA@ 0000000180002fec     libucrt:nlsdata.obj
 0001:00001ff4       ??_C@_06LBBHFDDG@August?$AA@ 0000000180002ff4     libucrt:nlsdata.obj
 0001:00002000       ??_C@_09BHHEALKD@September?$AA@ 0000000180003000     libucrt:nlsdata.obj
 0001:00002010       ??_C@_07JJNFCEND@October?$AA@ 0000000180003010     libucrt:nlsdata.obj
 0001:00002018       ??_C@_08HCHEGEOA@November?$AA@ 0000000180003018     libucrt:nlsdata.obj
 0001:00002028       ??_C@_08EDHMEBNP@December?$AA@ 0000000180003028     libucrt:nlsdata.obj
 0001:00002034       ??_C@_02DEDBPAFC@AM?$AA@   0000000180003034     libucrt:nlsdata.obj
 0001:00002038       ??_C@_02CJNFDJBF@PM?$AA@   0000000180003038     libucrt:nlsdata.obj
 0001:00002040       ??_C@_08BPBNCDIB@MM?1dd?1yy?$AA@ 0000000180003040     libucrt:nlsdata.obj
 0001:00002050       ??_C@_0BE@CKGJFCPC@dddd?0?5MMMM?5dd?0?5yyyy?$AA@ 0000000180003050     libucrt:nlsdata.obj
 0001:00002068       ??_C@_08JCCMCCIL@HH?3mm?3ss?$AA@ 0000000180003068     libucrt:nlsdata.obj
 0001:00002078       ??_C@_17MBGCMIPB@?$AAS?$AAu?$AAn?$AA?$AA@ 0000000180003078     libucrt:nlsdata.obj
 0001:00002080       ??_C@_17KBOMKBF@?$AAM?$AAo?$AAn?$AA?$AA@ 0000000180003080     libucrt:nlsdata.obj
 0001:00002088       ??_C@_17BMKGEGOJ@?$AAT?$AAu?$AAe?$AA?$AA@ 0000000180003088     libucrt:nlsdata.obj
 0001:00002090       ??_C@_17CJEDCEPE@?$AAW?$AAe?$AAd?$AA?$AA@ 0000000180003090     libucrt:nlsdata.obj
 0001:00002098       ??_C@_17PDPHAADD@?$AAT?$AAh?$AAu?$AA?$AA@ 0000000180003098     libucrt:nlsdata.obj
 0001:000020a0       ??_C@_17HFOLPPLP@?$AAF?$AAr?$AAi?$AA?$AA@ 00000001800030a0     libucrt:nlsdata.obj
 0001:000020a8       ??_C@_17GGIBDPIH@?$AAS?$AAa?$AAt?$AA?$AA@ 00000001800030a8     libucrt:nlsdata.obj
 0001:000020b0       ??_C@_1O@IHNHDHPB@?$AAS?$AAu?$AAn?$AAd?$AAa?$AAy?$AA?$AA@ 00000001800030b0     libucrt:nlsdata.obj
 0001:000020c0       ??_C@_1O@MMNBFLIA@?$AAM?$AAo?$AAn?$AAd?$AAa?$AAy?$AA?$AA@ 00000001800030c0     libucrt:nlsdata.obj
 0001:000020d0       ??_C@_1BA@ENFBFFEK@?$AAT?$AAu?$AAe?$AAs?$AAd?$AAa?$AAy?$AA?$AA@ 00000001800030d0     libucrt:nlsdata.obj
 0001:000020e0       ??_C@_1BE@EBOGMDOH@?$AAW?$AAe?$AAd?$AAn?$AAe?$AAs?$AAd?$AAa?$AAy?$AA?$AA@ 00000001800030e0     libucrt:nlsdata.obj
 0001:000020f8       ??_C@_1BC@HHMNLIHE@?$AAT?$AAh?$AAu?$AAr?$AAs?$AAd?$AAa?$AAy?$AA?$AA@ 00000001800030f8     libucrt:nlsdata.obj
 0001:00002110       ??_C@_1O@PDICJHAG@?$AAF?$AAr?$AAi?$AAd?$AAa?$AAy?$AA?$AA@ 0000000180003110     libucrt:nlsdata.obj
 0001:00002120       ??_C@_1BC@ENMNNPAJ@?$AAS?$AAa?$AAt?$AAu?$AAr?$AAd?$AAa?$AAy?$AA?$AA@ 0000000180003120     libucrt:nlsdata.obj
 0001:00002138       ??_C@_17DKNBKCHM@?$AAJ?$AAa?$AAn?$AA?$AA@ 0000000180003138     libucrt:nlsdata.obj
 0001:00002140       ??_C@_17LMDJEKJN@?$AAF?$AAe?$AAb?$AA?$AA@ 0000000180003140     libucrt:nlsdata.obj
 0001:00002148       ??_C@_17CKNLEDEC@?$AAM?$AAa?$AAr?$AA?$AA@ 0000000180003148     libucrt:nlsdata.obj
 0001:00002150       ??_C@_17LFPOIHDD@?$AAA?$AAp?$AAr?$AA?$AA@ 0000000180003150     libucrt:nlsdata.obj
 0001:00002158       ??_C@_17PNNKMEED@?$AAM?$AAa?$AAy?$AA?$AA@ 0000000180003158     libucrt:nlsdata.obj
 0001:00002160       ??_C@_17KCJGOCPB@?$AAJ?$AAu?$AAn?$AA?$AA@ 0000000180003160     libucrt:nlsdata.obj
 0001:00002168       ??_C@_17IJPCKHK@?$AAJ?$AAu?$AAl?$AA?$AA@ 0000000180003168     libucrt:nlsdata.obj
 0001:00002170       ??_C@_17ICPELBCN@?$AAA?$AAu?$AAg?$AA?$AA@ 0000000180003170     libucrt:nlsdata.obj
 0001:00002178       ??_C@_17HCHCOKMG@?$AAS?$AAe?$AAp?$AA?$AA@ 0000000180003178     libucrt:nlsdata.obj
 0001:00002180       ??_C@_17FNLKOI@?$AAO?$AAc?$AAt?$AA?$AA@ 0000000180003180     libucrt:nlsdata.obj
 0001:00002188       ??_C@_17BBDMLCIG@?$AAN?$AAo?$AAv?$AA?$AA@ 0000000180003188     libucrt:nlsdata.obj
 0001:00002190       ??_C@_17EGKACKIF@?$AAD?$AAe?$AAc?$AA?$AA@ 0000000180003190     libucrt:nlsdata.obj
 0001:00002198       ??_C@_1BA@EFMEIEBA@?$AAJ?$AAa?$AAn?$AAu?$AAa?$AAr?$AAy?$AA?$AA@ 0000000180003198     libucrt:nlsdata.obj
 0001:000021a8       ??_C@_1BC@JGDDFFAM@?$AAF?$AAe?$AAb?$AAr?$AAu?$AAa?$AAr?$AAy?$AA?$AA@ 00000001800031a8     libucrt:nlsdata.obj
 0001:000021c0       ??_C@_1M@IKEENEDF@?$AAM?$AAa?$AAr?$AAc?$AAh?$AA?$AA@ 00000001800031c0     libucrt:nlsdata.obj
 0001:000021d0       ??_C@_1M@GJNLMHFD@?$AAA?$AAp?$AAr?$AAi?$AAl?$AA?$AA@ 00000001800031d0     libucrt:nlsdata.obj
 0001:000021e0       ??_C@_19EPFLPGAP@?$AAJ?$AAu?$AAn?$AAe?$AA?$AA@ 00000001800031e0     libucrt:nlsdata.obj
 0001:000021f0       ??_C@_19BIFMLPCD@?$AAJ?$AAu?$AAl?$AAy?$AA?$AA@ 00000001800031f0     libucrt:nlsdata.obj
 0001:00002200       ??_C@_1O@PAHLKOAC@?$AAA?$AAu?$AAg?$AAu?$AAs?$AAt?$AA?$AA@ 0000000180003200     libucrt:nlsdata.obj
 0001:00002210       ??_C@_1BE@DKAAMBJL@?$AAS?$AAe?$AAp?$AAt?$AAe?$AAm?$AAb?$AAe?$AAr?$AA?$AA@ 0000000180003210     libucrt:nlsdata.obj
 0001:00002228       ??_C@_1BA@EPANDLNG@?$AAO?$AAc?$AAt?$AAo?$AAb?$AAe?$AAr?$AA?$AA@ 0000000180003228     libucrt:nlsdata.obj
 0001:00002238       ??_C@_1BC@BGLIFPF@?$AAN?$AAo?$AAv?$AAe?$AAm?$AAb?$AAe?$AAr?$AA?$AA@ 0000000180003238     libucrt:nlsdata.obj
 0001:00002250       ??_C@_1BC@FEMKIFH@?$AAD?$AAe?$AAc?$AAe?$AAm?$AAb?$AAe?$AAr?$AA?$AA@ 0000000180003250     libucrt:nlsdata.obj
 0001:00002264       ??_C@_15ODEHAHHF@?$AAA?$AAM?$AA?$AA@ 0000000180003264     libucrt:nlsdata.obj
 0001:0000226c       ??_C@_15CLMNNGEL@?$AAP?$AAM?$AA?$AA@ 000000018000326c     libucrt:nlsdata.obj
 0001:00002278       ??_C@_1BC@IEBCMHCM@?$AAM?$AAM?$AA?1?$AAd?$AAd?$AA?1?$AAy?$AAy?$AA?$AA@ 0000000180003278     libucrt:nlsdata.obj
 0001:00002290       ??_C@_1CI@KNAKOEBC@?$AAd?$AAd?$AAd?$AAd?$AA?0?$AA?5?$AAM?$AAM?$AAM?$AAM?$AA?5?$AAd?$AAd?$AA?0?$AA?5?$AAy?$AAy?$AAy?$AAy?$AA?$AA@ 0000000180003290     libucrt:nlsdata.obj
 0001:000022b8       ??_C@_1BC@GDGBMEMK@?$AAH?$AAH?$AA?3?$AAm?$AAm?$AA?3?$AAs?$AAs?$AA?$AA@ 00000001800032b8     libucrt:nlsdata.obj
 0001:000022d0       ??_C@_1M@BMHNFIME@?$AAe?$AAn?$AA?9?$AAU?$AAS?$AA?$AA@ 00000001800032d0     libucrt:nlsdata.obj
 0001:000022e0       __newctype                 00000001800032e0     libucrt:ctype.obj
 0001:000025e0       __newclmap                 00000001800035e0     libucrt:ctype.obj
 0001:00002760       __newcumap                 0000000180003760     libucrt:ctype.obj
 0001:000028e0       ??_C@_1M@BJNKEDC@?$AAc?$AAa?$AA?9?$AAE?$AAS?$AA?$AA@ 00000001800038e0     libucrt:lcidtoname_downlevel.obj
 0001:000028f0       ??_C@_1M@IJJHFJHA@?$AAc?$AAs?$AA?9?$AAC?$AAZ?$AA?$AA@ 00000001800038f0     libucrt:lcidtoname_downlevel.obj
 0001:00002900       ??_C@_1M@CLPEOBGI@?$AAd?$AAa?$AA?9?$AAD?$AAK?$AA?$AA@ 0000000180003900     libucrt:lcidtoname_downlevel.obj
 0001:00002910       ??_C@_1M@MCMADGCB@?$AAd?$AAe?$AA?9?$AAD?$AAE?$AA?$AA@ 0000000180003910     libucrt:lcidtoname_downlevel.obj
 0001:00002920       ??_C@_1M@OOCKEMAM@?$AAe?$AAl?$AA?9?$AAG?$AAR?$AA?$AA@ 0000000180003920     libucrt:lcidtoname_downlevel.obj
 0001:00002930       ??_C@_1M@DDNJFGID@?$AAf?$AAi?$AA?9?$AAF?$AAI?$AA?$AA@ 0000000180003930     libucrt:lcidtoname_downlevel.obj
 0001:00002940       ??_C@_1M@GLIPPMAC@?$AAf?$AAr?$AA?9?$AAF?$AAR?$AA?$AA@ 0000000180003940     libucrt:lcidtoname_downlevel.obj
 0001:00002950       ??_C@_1M@GFMCHPE@?$AAh?$AAe?$AA?9?$AAI?$AAL?$AA?$AA@ 0000000180003950     libucrt:lcidtoname_downlevel.obj
 0001:00002960       ??_C@_1M@MHLPGNKM@?$AAh?$AAu?$AA?9?$AAH?$AAU?$AA?$AA@ 0000000180003960     libucrt:lcidtoname_downlevel.obj
 0001:00002970       ??_C@_1M@LPDDNNPN@?$AAi?$AAs?$AA?9?$AAI?$AAS?$AA?$AA@ 0000000180003970     libucrt:lcidtoname_downlevel.obj
 0001:00002980       ??_C@_1M@MADIPODN@?$AAi?$AAt?$AA?9?$AAI?$AAT?$AA?$AA@ 0000000180003980     libucrt:lcidtoname_downlevel.obj
 0001:00002990       ??_C@_1M@IHBJJGG@?$AAn?$AAl?$AA?9?$AAN?$AAL?$AA?$AA@ 0000000180003990     libucrt:lcidtoname_downlevel.obj
 0001:000029a0       ??_C@_1M@EANAGDL@?$AAn?$AAb?$AA?9?$AAN?$AAO?$AA?$AA@ 00000001800039a0     libucrt:lcidtoname_downlevel.obj
 0001:000029b0       ??_C@_1M@NEIEMEGP@?$AAp?$AAl?$AA?9?$AAP?$AAL?$AA?$AA@ 00000001800039b0     libucrt:lcidtoname_downlevel.obj
 0001:000029c0       ??_C@_1M@BOCFIGEP@?$AAp?$AAt?$AA?9?$AAB?$AAR?$AA?$AA@ 00000001800039c0     libucrt:lcidtoname_downlevel.obj
 0001:000029d0       ??_C@_1M@IMPFOPBG@?$AAr?$AAo?$AA?9?$AAR?$AAO?$AA?$AA@ 00000001800039d0     libucrt:lcidtoname_downlevel.obj
 0001:000029e0       ??_C@_1M@IDNNEJMM@?$AAr?$AAu?$AA?9?$AAR?$AAU?$AA?$AA@ 00000001800039e0     libucrt:lcidtoname_downlevel.obj
 0001:000029f0       ??_C@_1M@LILEEOGM@?$AAh?$AAr?$AA?9?$AAH?$AAR?$AA?$AA@ 00000001800039f0     libucrt:lcidtoname_downlevel.obj
 0001:00002a00       ??_C@_1M@FKIFEHPB@?$AAs?$AAk?$AA?9?$AAS?$AAK?$AA?$AA@ 0000000180003a00     libucrt:lcidtoname_downlevel.obj
 0001:00002a10       ??_C@_1M@LJMAMNPJ@?$AAs?$AAq?$AA?9?$AAA?$AAL?$AA?$AA@ 0000000180003a10     libucrt:lcidtoname_downlevel.obj
 0001:00002a20       ??_C@_1M@GIAKDKJK@?$AAs?$AAv?$AA?9?$AAS?$AAE?$AA?$AA@ 0000000180003a20     libucrt:lcidtoname_downlevel.obj
 0001:00002a30       ??_C@_1M@MKJKIKCL@?$AAt?$AAh?$AA?9?$AAT?$AAH?$AA?$AA@ 0000000180003a30     libucrt:lcidtoname_downlevel.obj
 0001:00002a40       ??_C@_1M@MFLCCMPB@?$AAt?$AAr?$AA?9?$AAT?$AAR?$AA?$AA@ 0000000180003a40     libucrt:lcidtoname_downlevel.obj
 0001:00002a50       ??_C@_1M@OIJHDKJN@?$AAu?$AAr?$AA?9?$AAP?$AAK?$AA?$AA@ 0000000180003a50     libucrt:lcidtoname_downlevel.obj
 0001:00002a60       ??_C@_1M@LHIPCIEK@?$AAi?$AAd?$AA?9?$AAI?$AAD?$AA?$AA@ 0000000180003a60     libucrt:lcidtoname_downlevel.obj
 0001:00002a70       ??_C@_1M@MFMOBGI@?$AAu?$AAk?$AA?9?$AAU?$AAA?$AA?$AA@ 0000000180003a70     libucrt:lcidtoname_downlevel.obj
 0001:00002a80       ??_C@_1M@OBGLJIPL@?$AAb?$AAe?$AA?9?$AAB?$AAY?$AA?$AA@ 0000000180003a80     libucrt:lcidtoname_downlevel.obj
 0001:00002a90       ??_C@_1M@BCFAJEAD@?$AAs?$AAl?$AA?9?$AAS?$AAI?$AA?$AA@ 0000000180003a90     libucrt:lcidtoname_downlevel.obj
 0001:00002aa0       ??_C@_1M@FKFFEDDN@?$AAe?$AAt?$AA?9?$AAE?$AAE?$AA?$AA@ 0000000180003aa0     libucrt:lcidtoname_downlevel.obj
 0001:00002ab0       ??_C@_1M@KGKKAACI@?$AAl?$AAv?$AA?9?$AAL?$AAV?$AA?$AA@ 0000000180003ab0     libucrt:lcidtoname_downlevel.obj
 0001:00002ac0       ??_C@_1M@IFGBIJO@?$AAl?$AAt?$AA?9?$AAL?$AAT?$AA?$AA@ 0000000180003ac0     libucrt:lcidtoname_downlevel.obj
 0001:00002ad0       ??_C@_1M@FGEAHEDM@?$AAf?$AAa?$AA?9?$AAI?$AAR?$AA?$AA@ 0000000180003ad0     libucrt:lcidtoname_downlevel.obj
 0001:00002ae0       ??_C@_1M@KBMAIBFN@?$AAv?$AAi?$AA?9?$AAV?$AAN?$AA?$AA@ 0000000180003ae0     libucrt:lcidtoname_downlevel.obj
 0001:00002af0       ??_C@_1M@GPCBKDJK@?$AAh?$AAy?$AA?9?$AAA?$AAM?$AA?$AA@ 0000000180003af0     libucrt:lcidtoname_downlevel.obj
 0001:00002b00       ??_C@_1BG@BECMDDJB@?$AAa?$AAz?$AA?9?$AAA?$AAZ?$AA?9?$AAL?$AAa?$AAt?$AAn?$AA?$AA@ 0000000180003b00     libucrt:lcidtoname_downlevel.obj
 0001:00002b18       ??_C@_1M@MAOFCAEA@?$AAe?$AAu?$AA?9?$AAE?$AAS?$AA?$AA@ 0000000180003b18     libucrt:lcidtoname_downlevel.obj
 0001:00002b28       ??_C@_1M@IGHABKPI@?$AAm?$AAk?$AA?9?$AAM?$AAK?$AA?$AA@ 0000000180003b28     libucrt:lcidtoname_downlevel.obj
 0001:00002b38       ??_C@_1M@IAIGNEJG@?$AAt?$AAn?$AA?9?$AAZ?$AAA?$AA?$AA@ 0000000180003b38     libucrt:lcidtoname_downlevel.obj
 0001:00002b48       ??_C@_1M@IIJCOJFA@?$AAx?$AAh?$AA?9?$AAZ?$AAA?$AA?$AA@ 0000000180003b48     libucrt:lcidtoname_downlevel.obj
 0001:00002b58       ??_C@_1M@LGPJHNJH@?$AAz?$AAu?$AA?9?$AAZ?$AAA?$AA?$AA@ 0000000180003b58     libucrt:lcidtoname_downlevel.obj
 0001:00002b68       ??_C@_1M@HOKAOIO@?$AAa?$AAf?$AA?9?$AAZ?$AAA?$AA?$AA@ 0000000180003b68     libucrt:lcidtoname_downlevel.obj
 0001:00002b78       ??_C@_1M@DPCLHLIE@?$AAk?$AAa?$AA?9?$AAG?$AAE?$AA?$AA@ 0000000180003b78     libucrt:lcidtoname_downlevel.obj
 0001:00002b88       ??_C@_1M@BLKMHJBI@?$AAf?$AAo?$AA?9?$AAF?$AAO?$AA?$AA@ 0000000180003b88     libucrt:lcidtoname_downlevel.obj
 0001:00002b98       ??_C@_1M@LGGJAPPB@?$AAh?$AAi?$AA?9?$AAI?$AAN?$AA?$AA@ 0000000180003b98     libucrt:lcidtoname_downlevel.obj
 0001:00002ba8       ??_C@_1M@FIKPIHFE@?$AAm?$AAt?$AA?9?$AAM?$AAT?$AA?$AA@ 0000000180003ba8     libucrt:lcidtoname_downlevel.obj
 0001:00002bb8       ??_C@_1M@HEGGPBFA@?$AAs?$AAe?$AA?9?$AAN?$AAO?$AA?$AA@ 0000000180003bb8     libucrt:lcidtoname_downlevel.obj
 0001:00002bc8       ??_C@_1M@EIBJEEPA@?$AAm?$AAs?$AA?9?$AAM?$AAY?$AA?$AA@ 0000000180003bc8     libucrt:lcidtoname_downlevel.obj
 0001:00002bd8       ??_C@_1M@FHLBGMPP@?$AAk?$AAk?$AA?9?$AAK?$AAZ?$AA?$AA@ 0000000180003bd8     libucrt:lcidtoname_downlevel.obj
 0001:00002be8       ??_C@_1M@NGJJLCGI@?$AAk?$AAy?$AA?9?$AAK?$AAG?$AA?$AA@ 0000000180003be8     libucrt:lcidtoname_downlevel.obj
 0001:00002bf8       ??_C@_1M@GIENNBFC@?$AAs?$AAw?$AA?9?$AAK?$AAE?$AA?$AA@ 0000000180003bf8     libucrt:lcidtoname_downlevel.obj
 0001:00002c08       ??_C@_1BG@NDGMJIMJ@?$AAu?$AAz?$AA?9?$AAU?$AAZ?$AA?9?$AAL?$AAa?$AAt?$AAn?$AA?$AA@ 0000000180003c08     libucrt:lcidtoname_downlevel.obj
 0001:00002c20       ??_C@_1M@IDCCIHBC@?$AAt?$AAt?$AA?9?$AAR?$AAU?$AA?$AA@ 0000000180003c20     libucrt:lcidtoname_downlevel.obj
 0001:00002c30       ??_C@_1M@LOICPMOJ@?$AAb?$AAn?$AA?9?$AAI?$AAN?$AA?$AA@ 0000000180003c30     libucrt:lcidtoname_downlevel.obj
 0001:00002c40       ??_C@_1M@KPKKNEAH@?$AAp?$AAa?$AA?9?$AAI?$AAN?$AA?$AA@ 0000000180003c40     libucrt:lcidtoname_downlevel.obj
 0001:00002c50       ??_C@_1M@PJGPPBOG@?$AAg?$AAu?$AA?9?$AAI?$AAN?$AA?$AA@ 0000000180003c50     libucrt:lcidtoname_downlevel.obj
 0001:00002c60       ??_C@_1M@KMKMOPHI@?$AAt?$AAa?$AA?9?$AAI?$AAN?$AA?$AA@ 0000000180003c60     libucrt:lcidtoname_downlevel.obj
 0001:00002c70       ??_C@_1M@KFEHEPAC@?$AAt?$AAe?$AA?9?$AAI?$AAN?$AA?$AA@ 0000000180003c70     libucrt:lcidtoname_downlevel.obj
 0001:00002c80       ??_C@_1M@CDCLMGHI@?$AAk?$AAn?$AA?9?$AAI?$AAN?$AA?$AA@ 0000000180003c80     libucrt:lcidtoname_downlevel.obj
 0001:00002c90       ??_C@_1M@MIODLDKF@?$AAm?$AAl?$AA?9?$AAI?$AAN?$AA?$AA@ 0000000180003c90     libucrt:lcidtoname_downlevel.obj
 0001:00002ca0       ??_C@_1M@PBIEACPO@?$AAm?$AAr?$AA?9?$AAI?$AAN?$AA?$AA@ 0000000180003ca0     libucrt:lcidtoname_downlevel.obj
 0001:00002cb0       ??_C@_1M@NIDEAGPH@?$AAs?$AAa?$AA?9?$AAI?$AAN?$AA?$AA@ 0000000180003cb0     libucrt:lcidtoname_downlevel.obj
 0001:00002cc0       ??_C@_1M@FHIHCBIO@?$AAm?$AAn?$AA?9?$AAM?$AAN?$AA?$AA@ 0000000180003cc0     libucrt:lcidtoname_downlevel.obj
 0001:00002cd0       ??_C@_1M@JAIJPENP@?$AAc?$AAy?$AA?9?$AAG?$AAB?$AA?$AA@ 0000000180003cd0     libucrt:lcidtoname_downlevel.obj
 0001:00002ce0       ??_C@_1M@PHGFBEPN@?$AAg?$AAl?$AA?9?$AAE?$AAS?$AA?$AA@ 0000000180003ce0     libucrt:lcidtoname_downlevel.obj
 0001:00002cf0       ??_C@_1O@KPIPDNCP@?$AAk?$AAo?$AAk?$AA?9?$AAI?$AAN?$AA?$AA@ 0000000180003cf0     libucrt:lcidtoname_downlevel.obj
 0001:00002d00       ??_C@_1O@KNHJLDJA@?$AAs?$AAy?$AAr?$AA?9?$AAS?$AAY?$AA?$AA@ 0000000180003d00     libucrt:lcidtoname_downlevel.obj
 0001:00002d10       ??_C@_1O@MKEKBLAH@?$AAd?$AAi?$AAv?$AA?9?$AAM?$AAV?$AA?$AA@ 0000000180003d10     libucrt:lcidtoname_downlevel.obj
 0001:00002d20       ??_C@_1O@OHDCKDDF@?$AAq?$AAu?$AAz?$AA?9?$AAB?$AAO?$AA?$AA@ 0000000180003d20     libucrt:lcidtoname_downlevel.obj
 0001:00002d30       ??_C@_1M@LEPJNLFD@?$AAn?$AAs?$AA?9?$AAZ?$AAA?$AA?$AA@ 0000000180003d30     libucrt:lcidtoname_downlevel.obj
 0001:00002d40       ??_C@_1M@OMLEIIJB@?$AAm?$AAi?$AA?9?$AAN?$AAZ?$AA?$AA@ 0000000180003d40     libucrt:lcidtoname_downlevel.obj
 0001:00002d50       ??_C@_1M@PMPEAILG@?$AAa?$AAr?$AA?9?$AAI?$AAQ?$AA?$AA@ 0000000180003d50     libucrt:lcidtoname_downlevel.obj
 0001:00002d60       ??_C@_1M@CNKPNOEE@?$AAd?$AAe?$AA?9?$AAC?$AAH?$AA?$AA@ 0000000180003d60     libucrt:lcidtoname_downlevel.obj
 0001:00002d70       ??_C@_1M@LKMGMLKO@?$AAe?$AAn?$AA?9?$AAG?$AAB?$AA?$AA@ 0000000180003d70     libucrt:lcidtoname_downlevel.obj
 0001:00002d80       ??_C@_1M@PGKJFFGL@?$AAe?$AAs?$AA?9?$AAM?$AAX?$AA?$AA@ 0000000180003d80     libucrt:lcidtoname_downlevel.obj
 0001:00002d90       ??_C@_1M@DNNANBDC@?$AAf?$AAr?$AA?9?$AAB?$AAE?$AA?$AA@ 0000000180003d90     libucrt:lcidtoname_downlevel.obj
 0001:00002da0       ??_C@_1M@HLGMDFHM@?$AAi?$AAt?$AA?9?$AAC?$AAH?$AA?$AA@ 0000000180003da0     libucrt:lcidtoname_downlevel.obj
 0001:00002db0       ??_C@_1M@CLLBGJH@?$AAn?$AAl?$AA?9?$AAB?$AAE?$AA?$AA@ 0000000180003db0     libucrt:lcidtoname_downlevel.obj
 0001:00002dc0       ??_C@_1M@BODBOGLF@?$AAn?$AAn?$AA?9?$AAN?$AAO?$AA?$AA@ 0000000180003dc0     libucrt:lcidtoname_downlevel.obj
 0001:00002dd0       ??_C@_1M@HFFAHKAD@?$AAp?$AAt?$AA?9?$AAP?$AAT?$AA?$AA@ 0000000180003dd0     libucrt:lcidtoname_downlevel.obj
 0001:00002de0       ??_C@_1BG@LNOAKHIE@?$AAs?$AAr?$AA?9?$AAS?$AAP?$AA?9?$AAL?$AAa?$AAt?$AAn?$AA?$AA@ 0000000180003de0     libucrt:lcidtoname_downlevel.obj
 0001:00002df8       ??_C@_1M@HBMHBGAK@?$AAs?$AAv?$AA?9?$AAF?$AAI?$AA?$AA@ 0000000180003df8     libucrt:lcidtoname_downlevel.obj
 0001:00002e08       ??_C@_1BG@DGCJGJBE@?$AAa?$AAz?$AA?9?$AAA?$AAZ?$AA?9?$AAC?$AAy?$AAr?$AAl?$AA?$AA@ 0000000180003e08     libucrt:lcidtoname_downlevel.obj
 0001:00002e20       ??_C@_1M@KEJDAAHB@?$AAs?$AAe?$AA?9?$AAS?$AAE?$AA?$AA@ 0000000180003e20     libucrt:lcidtoname_downlevel.obj
 0001:00002e30       ??_C@_1M@HEIBJJAD@?$AAm?$AAs?$AA?9?$AAB?$AAN?$AA?$AA@ 0000000180003e30     libucrt:lcidtoname_downlevel.obj
 0001:00002e40       ??_C@_1BG@PBGJMCEM@?$AAu?$AAz?$AA?9?$AAU?$AAZ?$AA?9?$AAC?$AAy?$AAr?$AAl?$AA?$AA@ 0000000180003e40     libucrt:lcidtoname_downlevel.obj
 0001:00002e58       ??_C@_1O@LAOBCMDF@?$AAq?$AAu?$AAz?$AA?9?$AAE?$AAC?$AA?$AA@ 0000000180003e58     libucrt:lcidtoname_downlevel.obj
 0001:00002e68       ??_C@_1M@POEEMAIO@?$AAa?$AAr?$AA?9?$AAE?$AAG?$AA?$AA@ 0000000180003e68     libucrt:lcidtoname_downlevel.obj
 0001:00002e78       ??_C@_1M@EFAKDEDL@?$AAz?$AAh?$AA?9?$AAH?$AAK?$AA?$AA@ 0000000180003e78     libucrt:lcidtoname_downlevel.obj
 0001:00002e88       ??_C@_1M@HKKIJHGI@?$AAd?$AAe?$AA?9?$AAA?$AAT?$AA?$AA@ 0000000180003e88     libucrt:lcidtoname_downlevel.obj
 0001:00002e98       ??_C@_1M@KBFBEHJF@?$AAe?$AAn?$AA?9?$AAA?$AAU?$AA?$AA@ 0000000180003e98     libucrt:lcidtoname_downlevel.obj
 0001:00002ea8       ??_C@_1M@MNPLFAAH@?$AAe?$AAs?$AA?9?$AAE?$AAS?$AA?$AA@ 0000000180003ea8     libucrt:lcidtoname_downlevel.obj
 0001:00002eb8       ??_C@_1M@HJOOJFMA@?$AAf?$AAr?$AA?9?$AAC?$AAA?$AA?$AA@ 0000000180003eb8     libucrt:lcidtoname_downlevel.obj
 0001:00002ec8       ??_C@_1BG@JPOFPNAB@?$AAs?$AAr?$AA?9?$AAS?$AAP?$AA?9?$AAC?$AAy?$AAr?$AAl?$AA?$AA@ 0000000180003ec8     libucrt:lcidtoname_downlevel.obj
 0001:00002ee0       ??_C@_1M@LNFOCMOB@?$AAs?$AAe?$AA?9?$AAF?$AAI?$AA?$AA@ 0000000180003ee0     libucrt:lcidtoname_downlevel.obj
 0001:00002ef0       ??_C@_1O@MGJBOAMB@?$AAq?$AAu?$AAz?$AA?9?$AAP?$AAE?$AA?$AA@ 0000000180003ef0     libucrt:lcidtoname_downlevel.obj
 0001:00002f00       ??_C@_1M@GJINLBOK@?$AAa?$AAr?$AA?9?$AAL?$AAY?$AA?$AA@ 0000000180003f00     libucrt:lcidtoname_downlevel.obj
 0001:00002f10       ??_C@_1M@GGMNHJNL@?$AAz?$AAh?$AA?9?$AAS?$AAG?$AA?$AA@ 0000000180003f10     libucrt:lcidtoname_downlevel.obj
 0001:00002f20       ??_C@_1M@HOIKODND@?$AAd?$AAe?$AA?9?$AAL?$AAU?$AA?$AA@ 0000000180003f20     libucrt:lcidtoname_downlevel.obj
 0001:00002f30       ??_C@_1M@DDOCCGFG@?$AAe?$AAn?$AA?9?$AAC?$AAA?$AA?$AA@ 0000000180003f30     libucrt:lcidtoname_downlevel.obj
 0001:00002f40       ??_C@_1M@BNOEMJLF@?$AAe?$AAs?$AA?9?$AAG?$AAT?$AA?$AA@ 0000000180003f40     libucrt:lcidtoname_downlevel.obj
 0001:00002f50       ??_C@_1M@EOGNKEK@?$AAf?$AAr?$AA?9?$AAC?$AAH?$AA?$AA@ 0000000180003f50     libucrt:lcidtoname_downlevel.obj
 0001:00002f60       ??_C@_1M@FLIDJFHL@?$AAh?$AAr?$AA?9?$AAB?$AAA?$AA?$AA@ 0000000180003f60     libucrt:lcidtoname_downlevel.obj
 0001:00002f70       ??_C@_1O@FMCELNAJ@?$AAs?$AAm?$AAj?$AA?9?$AAN?$AAO?$AA?$AA@ 0000000180003f70     libucrt:lcidtoname_downlevel.obj
 0001:00002f80       ??_C@_1M@JHGLJMGJ@?$AAa?$AAr?$AA?9?$AAD?$AAZ?$AA?$AA@ 0000000180003f80     libucrt:lcidtoname_downlevel.obj
 0001:00002f90       ??_C@_1M@JKKFDCNP@?$AAz?$AAh?$AA?9?$AAM?$AAO?$AA?$AA@ 0000000180003f90     libucrt:lcidtoname_downlevel.obj
 0001:00002fa0       ??_C@_1M@GEEFALPE@?$AAd?$AAe?$AA?9?$AAL?$AAI?$AA?$AA@ 0000000180003fa0     libucrt:lcidtoname_downlevel.obj
 0001:00002fb0       ??_C@_1M@IGEOFBG@?$AAe?$AAn?$AA?9?$AAN?$AAZ?$AA?$AA@ 0000000180003fb0     libucrt:lcidtoname_downlevel.obj
 0001:00002fc0       ??_C@_1M@KDBONEHP@?$AAe?$AAs?$AA?9?$AAC?$AAR?$AA?$AA@ 0000000180003fc0     libucrt:lcidtoname_downlevel.obj
 0001:00002fd0       ??_C@_1M@FHMDOHNN@?$AAf?$AAr?$AA?9?$AAL?$AAU?$AA?$AA@ 0000000180003fd0     libucrt:lcidtoname_downlevel.obj
 0001:00002fe0       ??_C@_1BG@NFKKMAFG@?$AAb?$AAs?$AA?9?$AAB?$AAA?$AA?9?$AAL?$AAa?$AAt?$AAn?$AA?$AA@ 0000000180003fe0     libucrt:lcidtoname_downlevel.obj
 0001:00002ff8       ??_C@_1O@IMNBEMCI@?$AAs?$AAm?$AAj?$AA?9?$AAS?$AAE?$AA?$AA@ 0000000180003ff8     libucrt:lcidtoname_downlevel.obj
 0001:00003008       ??_C@_1M@DHHMBNDP@?$AAa?$AAr?$AA?9?$AAM?$AAA?$AA?$AA@ 0000000180004008     libucrt:lcidtoname_downlevel.obj
 0001:00003018       ??_C@_1M@BNBLJCGH@?$AAe?$AAn?$AA?9?$AAI?$AAE?$AA?$AA@ 0000000180004018     libucrt:lcidtoname_downlevel.obj
 0001:00003028       ??_C@_1M@GEPAFMDL@?$AAe?$AAs?$AA?9?$AAP?$AAA?$AA?$AA@ 0000000180004028     libucrt:lcidtoname_downlevel.obj
 0001:00003038       ??_C@_1M@OJONDMDL@?$AAf?$AAr?$AA?9?$AAM?$AAC?$AA?$AA@ 0000000180004038     libucrt:lcidtoname_downlevel.obj
 0001:00003048       ??_C@_1BG@OBCNFJB@?$AAs?$AAr?$AA?9?$AAB?$AAA?$AA?9?$AAL?$AAa?$AAt?$AAn?$AA?$AA@ 0000000180004048     libucrt:lcidtoname_downlevel.obj
 0001:00003060       ??_C@_1O@KEMEEGPO@?$AAs?$AAm?$AAa?$AA?9?$AAN?$AAO?$AA?$AA@ 0000000180004060     libucrt:lcidtoname_downlevel.obj
 0001:00003070       ??_C@_1M@ELMGFODK@?$AAa?$AAr?$AA?9?$AAT?$AAN?$AA?$AA@ 0000000180004070     libucrt:lcidtoname_downlevel.obj
 0001:00003080       ??_C@_1M@BHDLHFAF@?$AAe?$AAn?$AA?9?$AAZ?$AAA?$AA?$AA@ 0000000180004080     libucrt:lcidtoname_downlevel.obj
 0001:00003090       ??_C@_1M@BMGIGLIF@?$AAe?$AAs?$AA?9?$AAD?$AAO?$AA?$AA@ 0000000180004090     libucrt:lcidtoname_downlevel.obj
 0001:000030a0       ??_C@_1BG@CMBHIPBE@?$AAs?$AAr?$AA?9?$AAB?$AAA?$AA?9?$AAC?$AAy?$AAr?$AAl?$AA?$AA@ 00000001800040a0     libucrt:lcidtoname_downlevel.obj
 0001:000030b8       ??_C@_1O@HEDBLHNP@?$AAs?$AAm?$AAa?$AA?9?$AAS?$AAE?$AA?$AA@ 00000001800040b8     libucrt:lcidtoname_downlevel.obj
 0001:000030c8       ??_C@_1M@DAGCADIM@?$AAa?$AAr?$AA?9?$AAO?$AAM?$AA?$AA@ 00000001800040c8     libucrt:lcidtoname_downlevel.obj
 0001:000030d8       ??_C@_1M@FODLMICG@?$AAe?$AAn?$AA?9?$AAJ?$AAM?$AA?$AA@ 00000001800040d8     libucrt:lcidtoname_downlevel.obj
 0001:000030e8       ??_C@_1M@DNMLCIHB@?$AAe?$AAs?$AA?9?$AAV?$AAE?$AA?$AA@ 00000001800040e8     libucrt:lcidtoname_downlevel.obj
 0001:000030f8       ??_C@_1O@EOKHMKJK@?$AAs?$AAm?$AAs?$AA?9?$AAF?$AAI?$AA?$AA@ 00000001800040f8     libucrt:lcidtoname_downlevel.obj
 0001:00003108       ??_C@_1M@CAFJMKOF@?$AAa?$AAr?$AA?9?$AAY?$AAE?$AA?$AA@ 0000000180004108     libucrt:lcidtoname_downlevel.obj
 0001:00003118       ??_C@_1M@CBFHIJLI@?$AAe?$AAn?$AA?9?$AAC?$AAB?$AA?$AA@ 0000000180004118     libucrt:lcidtoname_downlevel.obj
 0001:00003128       ??_C@_1M@BGNFLDN@?$AAe?$AAs?$AA?9?$AAC?$AAO?$AA?$AA@ 0000000180004128     libucrt:lcidtoname_downlevel.obj
 0001:00003138       ??_C@_1O@JMPHMAMC@?$AAs?$AAm?$AAn?$AA?9?$AAF?$AAI?$AA?$AA@ 0000000180004138     libucrt:lcidtoname_downlevel.obj
 0001:00003148       ??_C@_1M@JLANABKE@?$AAa?$AAr?$AA?9?$AAS?$AAY?$AA?$AA@ 0000000180004148     libucrt:lcidtoname_downlevel.obj
 0001:00003158       ??_C@_1M@HPKGCFGN@?$AAe?$AAn?$AA?9?$AAB?$AAZ?$AA?$AA@ 0000000180004158     libucrt:lcidtoname_downlevel.obj
 0001:00003168       ??_C@_1M@OLJCMLGM@?$AAe?$AAs?$AA?9?$AAP?$AAE?$AA?$AA@ 0000000180004168     libucrt:lcidtoname_downlevel.obj
 0001:00003178       ??_C@_1M@MKKGFKLE@?$AAa?$AAr?$AA?9?$AAJ?$AAO?$AA?$AA@ 0000000180004178     libucrt:lcidtoname_downlevel.obj
 0001:00003188       ??_C@_1M@EKPGLDNI@?$AAe?$AAn?$AA?9?$AAT?$AAT?$AA?$AA@ 0000000180004188     libucrt:lcidtoname_downlevel.obj
 0001:00003198       ??_C@_1M@OONGHFHE@?$AAe?$AAs?$AA?9?$AAA?$AAR?$AA?$AA@ 0000000180004198     libucrt:lcidtoname_downlevel.obj
 0001:000031a8       ??_C@_1M@OOJFGBHE@?$AAa?$AAr?$AA?9?$AAL?$AAB?$AA?$AA@ 00000001800041a8     libucrt:lcidtoname_downlevel.obj
 0001:000031b8       ??_C@_1M@GCEJHNEG@?$AAe?$AAn?$AA?9?$AAZ?$AAW?$AA?$AA@ 00000001800041b8     libucrt:lcidtoname_downlevel.obj
 0001:000031c8       ??_C@_1M@JNOCAHJI@?$AAe?$AAs?$AA?9?$AAE?$AAC?$AA?$AA@ 00000001800041c8     libucrt:lcidtoname_downlevel.obj
 0001:000031d8       ??_C@_1M@JEFHPGGB@?$AAa?$AAr?$AA?9?$AAK?$AAW?$AA?$AA@ 00000001800041d8     libucrt:lcidtoname_downlevel.obj
 0001:000031e8       ??_C@_1M@MLKIBJOJ@?$AAe?$AAn?$AA?9?$AAP?$AAH?$AA?$AA@ 00000001800041e8     libucrt:lcidtoname_downlevel.obj
 0001:000031f8       ??_C@_1M@BDNIPEND@?$AAe?$AAs?$AA?9?$AAC?$AAL?$AA?$AA@ 00000001800041f8     libucrt:lcidtoname_downlevel.obj
 0001:00003208       ??_C@_1M@MPNMEKBD@?$AAa?$AAr?$AA?9?$AAA?$AAE?$AA?$AA@ 0000000180004208     libucrt:lcidtoname_downlevel.obj
 0001:00003218       ??_C@_1M@KBJALCPI@?$AAe?$AAs?$AA?9?$AAU?$AAY?$AA?$AA@ 0000000180004218     libucrt:lcidtoname_downlevel.obj
 0001:00003228       ??_C@_1M@LLCCOAGA@?$AAa?$AAr?$AA?9?$AAB?$AAH?$AA?$AA@ 0000000180004228     libucrt:lcidtoname_downlevel.obj
 0001:00003238       ??_C@_1M@PBFNCDEL@?$AAe?$AAs?$AA?9?$AAP?$AAY?$AA?$AA@ 0000000180004238     libucrt:lcidtoname_downlevel.obj
 0001:00003248       ??_C@_1M@EDGINPNP@?$AAa?$AAr?$AA?9?$AAQ?$AAA?$AA?$AA@ 0000000180004248     libucrt:lcidtoname_downlevel.obj
 0001:00003258       ??_C@_1M@MKDBIIJI@?$AAe?$AAs?$AA?9?$AAB?$AAO?$AA?$AA@ 0000000180004258     libucrt:lcidtoname_downlevel.obj
 0001:00003268       ??_C@_1M@CPKKEBLD@?$AAe?$AAs?$AA?9?$AAS?$AAV?$AA?$AA@ 0000000180004268     libucrt:lcidtoname_downlevel.obj
 0001:00003278       ??_C@_1M@NDBGMMJL@?$AAe?$AAs?$AA?9?$AAH?$AAN?$AA?$AA@ 0000000180004278     libucrt:lcidtoname_downlevel.obj
 0001:00003288       ??_C@_1M@JIJIBHDP@?$AAe?$AAs?$AA?9?$AAN?$AAI?$AA?$AA@ 0000000180004288     libucrt:lcidtoname_downlevel.obj
 0001:00003298       ??_C@_1M@CGFMKEEK@?$AAe?$AAs?$AA?9?$AAP?$AAR?$AA?$AA@ 0000000180004298     libucrt:lcidtoname_downlevel.obj
 0001:000032a8       ??_C@_1O@ICJHKIIK@?$AAz?$AAh?$AA?9?$AAC?$AAH?$AAT?$AA?$AA@ 00000001800042a8     libucrt:lcidtoname_downlevel.obj
 0001:000032b8       ??_C@_15CLNEJCE@?$AAs?$AAr?$AA?$AA@ 00000001800042b8     libucrt:lcidtoname_downlevel.obj
 0001:00004100       ??_C@_1M@KAHEKEIG@?$AAa?$AAf?$AA?9?$AAz?$AAa?$AA?$AA@ 0000000180005100     libucrt:lcidtoname_downlevel.obj
 0001:00004110       ??_C@_1M@GIECOABL@?$AAa?$AAr?$AA?9?$AAa?$AAe?$AA?$AA@ 0000000180005110     libucrt:lcidtoname_downlevel.obj
 0001:00004120       ??_C@_1M@BMLMEKGI@?$AAa?$AAr?$AA?9?$AAb?$AAh?$AA?$AA@ 0000000180005120     libucrt:lcidtoname_downlevel.obj
 0001:00004130       ??_C@_1M@DAPFDGGB@?$AAa?$AAr?$AA?9?$AAd?$AAz?$AA?$AA@ 0000000180005130     libucrt:lcidtoname_downlevel.obj
 0001:00004140       ??_C@_1M@FJNKGKIG@?$AAa?$AAr?$AA?9?$AAe?$AAg?$AA?$AA@ 0000000180005140     libucrt:lcidtoname_downlevel.obj
 0001:00004150       ??_C@_1M@FLGKKCLO@?$AAa?$AAr?$AA?9?$AAi?$AAq?$AA?$AA@ 0000000180005150     libucrt:lcidtoname_downlevel.obj
 0001:00004160       ??_C@_1M@GNDIPALM@?$AAa?$AAr?$AA?9?$AAj?$AAo?$AA?$AA@ 0000000180005160     libucrt:lcidtoname_downlevel.obj
 0001:00004170       ??_C@_1M@DDMJFMGJ@?$AAa?$AAr?$AA?9?$AAk?$AAw?$AA?$AA@ 0000000180005170     libucrt:lcidtoname_downlevel.obj
 0001:00004180       ??_C@_1M@EJALMLHM@?$AAa?$AAr?$AA?9?$AAl?$AAb?$AA?$AA@ 0000000180005180     libucrt:lcidtoname_downlevel.obj
 0001:00004190       ??_C@_1M@MOBDBLOC@?$AAa?$AAr?$AA?9?$AAl?$AAy?$AA?$AA@ 0000000180005190     libucrt:lcidtoname_downlevel.obj
 0001:000041a0       ??_C@_1M@JAOCLHDH@?$AAa?$AAr?$AA?9?$AAm?$AAa?$AA?$AA@ 00000001800051a0     libucrt:lcidtoname_downlevel.obj
 0001:000041b0       ??_C@_1M@JHPMKJIE@?$AAa?$AAr?$AA?9?$AAo?$AAm?$AA?$AA@ 00000001800051b0     libucrt:lcidtoname_downlevel.obj
 0001:000041c0       ??_C@_1M@OEPGHFNH@?$AAa?$AAr?$AA?9?$AAq?$AAa?$AA?$AA@ 00000001800051c0     libucrt:lcidtoname_downlevel.obj
 0001:000041d0       ??_C@_1M@KJDONENM@?$AAa?$AAr?$AA?9?$AAs?$AAa?$AA?$AA@ 00000001800051d0     libucrt:lcidtoname_downlevel.obj
 0001:000041e0       ??_C@_1M@DMJDKLKM@?$AAa?$AAr?$AA?9?$AAs?$AAy?$AA?$AA@ 00000001800051e0     libucrt:lcidtoname_downlevel.obj
 0001:000041f0       ??_C@_1M@OMFIPEDC@?$AAa?$AAr?$AA?9?$AAt?$AAn?$AA?$AA@ 00000001800051f0     libucrt:lcidtoname_downlevel.obj
 0001:00004200       ??_C@_1M@IHMHGAON@?$AAa?$AAr?$AA?9?$AAy?$AAe?$AA?$AA@ 0000000180005200     libucrt:lcidtoname_downlevel.obj
 0001:00004210       ??_C@_1BG@KDCPGJGB@?$AAa?$AAz?$AA?9?$AAa?$AAz?$AA?9?$AAc?$AAy?$AAr?$AAl?$AA?$AA@ 0000000180005210     libucrt:lcidtoname_downlevel.obj
 0001:00004228       ??_C@_1BG@IBCKDDOE@?$AAa?$AAz?$AA?9?$AAa?$AAz?$AA?9?$AAl?$AAa?$AAt?$AAn?$AA?$AA@ 0000000180005228     libucrt:lcidtoname_downlevel.obj
 0001:00004240       ??_C@_1M@EGPFDCPD@?$AAb?$AAe?$AA?9?$AAb?$AAy?$AA?$AA@ 0000000180005240     libucrt:lcidtoname_downlevel.obj
 0001:00004250       ??_C@_1M@PCMGMCGC@?$AAb?$AAg?$AA?9?$AAb?$AAg?$AA?$AA@ 0000000180005250     libucrt:lcidtoname_downlevel.obj
 0001:00004260       ??_C@_1M@BJBMFGOB@?$AAb?$AAn?$AA?9?$AAi?$AAn?$AA?$AA@ 0000000180005260     libucrt:lcidtoname_downlevel.obj
 0001:00004270       ??_C@_1BG@EAKMMACD@?$AAb?$AAs?$AA?9?$AAb?$AAa?$AA?9?$AAl?$AAa?$AAt?$AAn?$AA?$AA@ 0000000180005270     libucrt:lcidtoname_downlevel.obj
 0001:00004288       ??_C@_1M@KGADAODK@?$AAc?$AAa?$AA?9?$AAe?$AAs?$AA?$AA@ 0000000180005288     libucrt:lcidtoname_downlevel.obj
 0001:00004298       ??_C@_1M@COAJPDHI@?$AAc?$AAs?$AA?9?$AAc?$AAz?$AA?$AA@ 0000000180005298     libucrt:lcidtoname_downlevel.obj
 0001:000042a8       ??_C@_1M@DHBHFONH@?$AAc?$AAy?$AA?9?$AAg?$AAb?$AA?$AA@ 00000001800052a8     libucrt:lcidtoname_downlevel.obj
 0001:000042b8       ??_C@_1M@IMGKELGA@?$AAd?$AAa?$AA?9?$AAd?$AAk?$AA?$AA@ 00000001800052b8     libucrt:lcidtoname_downlevel.obj
 0001:000042c8       ??_C@_1M@NNDGDNGA@?$AAd?$AAe?$AA?9?$AAa?$AAt?$AA?$AA@ 00000001800052c8     libucrt:lcidtoname_downlevel.obj
 0001:000042d8       ??_C@_1M@IKDBHEEM@?$AAd?$AAe?$AA?9?$AAc?$AAh?$AA?$AA@ 00000001800052d8     libucrt:lcidtoname_downlevel.obj
 0001:000042e8       ??_C@_1M@GFFOJMCJ@?$AAd?$AAe?$AA?9?$AAd?$AAe?$AA?$AA@ 00000001800052e8     libucrt:lcidtoname_downlevel.obj
 0001:000042f8       ??_C@_1M@MDNLKBPM@?$AAd?$AAe?$AA?9?$AAl?$AAi?$AA?$AA@ 00000001800052f8     libucrt:lcidtoname_downlevel.obj
 0001:00004308       ??_C@_1M@NJBEEJNL@?$AAd?$AAe?$AA?9?$AAl?$AAu?$AA?$AA@ 0000000180005308     libucrt:lcidtoname_downlevel.obj
 0001:00004318       ??_C@_1O@GNNELBAP@?$AAd?$AAi?$AAv?$AA?9?$AAm?$AAv?$AA?$AA@ 0000000180005318     libucrt:lcidtoname_downlevel.obj
 0001:00004328       ??_C@_1M@EJLEOGAE@?$AAe?$AAl?$AA?9?$AAg?$AAr?$AA?$AA@ 0000000180005328     libucrt:lcidtoname_downlevel.obj
 0001:00004338       ??_C@_1M@GMPONJN@?$AAe?$AAn?$AA?9?$AAa?$AAu?$AA?$AA@ 0000000180005338     libucrt:lcidtoname_downlevel.obj
 0001:00004348       ??_C@_1M@NIDIIPGF@?$AAe?$AAn?$AA?9?$AAb?$AAz?$AA?$AA@ 0000000180005348     libucrt:lcidtoname_downlevel.obj
 0001:00004358       ??_C@_1M@JEHMIMFO@?$AAe?$AAn?$AA?9?$AAc?$AAa?$AA?$AA@ 0000000180005358     libucrt:lcidtoname_downlevel.obj
 0001:00004368       ??_C@_1M@IGMJCDLA@?$AAe?$AAn?$AA?9?$AAc?$AAb?$AA?$AA@ 0000000180005368     libucrt:lcidtoname_downlevel.obj
 0001:00004378       ??_C@_1M@BNFIGBKG@?$AAe?$AAn?$AA?9?$AAg?$AAb?$AA?$AA@ 0000000180005378     libucrt:lcidtoname_downlevel.obj
 0001:00004388       ??_C@_1M@LKIFDIGP@?$AAe?$AAn?$AA?9?$AAi?$AAe?$AA?$AA@ 0000000180005388     libucrt:lcidtoname_downlevel.obj
 0001:00004398       ??_C@_1M@PJKFGCCO@?$AAe?$AAn?$AA?9?$AAj?$AAm?$AA?$AA@ 0000000180005398     libucrt:lcidtoname_downlevel.obj
 0001:000043a8       ??_C@_1M@KPPKEPBO@?$AAe?$AAn?$AA?9?$AAn?$AAz?$AA?$AA@ 00000001800053a8     libucrt:lcidtoname_downlevel.obj
 0001:000043b8       ??_C@_1M@GMDGLDOB@?$AAe?$AAn?$AA?9?$AAp?$AAh?$AA?$AA@ 00000001800053b8     libucrt:lcidtoname_downlevel.obj
 0001:000043c8       ??_C@_1M@ONGIBJNA@?$AAe?$AAn?$AA?9?$AAt?$AAt?$AA?$AA@ 00000001800053c8     libucrt:lcidtoname_downlevel.obj
 0001:000043d8       ??_C@_1M@LLODPCMM@?$AAe?$AAn?$AA?9?$AAu?$AAs?$AA?$AA@ 00000001800053d8     libucrt:lcidtoname_downlevel.obj
 0001:000043e8       ??_C@_1M@LAKFNPAN@?$AAe?$AAn?$AA?9?$AAz?$AAa?$AA?$AA@ 00000001800053e8     libucrt:lcidtoname_downlevel.obj
 0001:000043f8       ??_C@_1M@MFNHNHEO@?$AAe?$AAn?$AA?9?$AAz?$AAw?$AA?$AA@ 00000001800053f8     libucrt:lcidtoname_downlevel.obj
 0001:00004408       ??_C@_1M@EJEINPHM@?$AAe?$AAs?$AA?9?$AAa?$AAr?$AA?$AA@ 0000000180005408     libucrt:lcidtoname_downlevel.obj
 0001:00004418       ??_C@_1M@GNKPCCJA@?$AAe?$AAs?$AA?9?$AAb?$AAo?$AA?$AA@ 0000000180005418     libucrt:lcidtoname_downlevel.obj
 0001:00004428       ??_C@_1M@LEEGFONL@?$AAe?$AAs?$AA?9?$AAc?$AAl?$AA?$AA@ 0000000180005428     libucrt:lcidtoname_downlevel.obj
 0001:00004438       ??_C@_1M@KGPDPBDF@?$AAe?$AAs?$AA?9?$AAc?$AAo?$AA?$AA@ 0000000180005438     libucrt:lcidtoname_downlevel.obj
 0001:00004448       ??_C@_1M@EIAHOHH@?$AAe?$AAs?$AA?9?$AAc?$AAr?$AA?$AA@ 0000000180005448     libucrt:lcidtoname_downlevel.obj
 0001:00004458       ??_C@_1M@LLPGMBIN@?$AAe?$AAs?$AA?9?$AAd?$AAo?$AA?$AA@ 0000000180005458     libucrt:lcidtoname_downlevel.obj
 0001:00004468       ??_C@_1M@DKHMKNJA@?$AAe?$AAs?$AA?9?$AAe?$AAc?$AA?$AA@ 0000000180005468     libucrt:lcidtoname_downlevel.obj
 0001:00004478       ??_C@_1M@GKGFPKAP@?$AAe?$AAs?$AA?9?$AAe?$AAs?$AA?$AA@ 0000000180005478     libucrt:lcidtoname_downlevel.obj
 0001:00004488       ??_C@_1M@LKHKGDLN@?$AAe?$AAs?$AA?9?$AAg?$AAt?$AA?$AA@ 0000000180005488     libucrt:lcidtoname_downlevel.obj
 0001:00004498       ??_C@_1M@HEIIGGJD@?$AAe?$AAs?$AA?9?$AAh?$AAn?$AA?$AA@ 0000000180005498     libucrt:lcidtoname_downlevel.obj
 0001:000044a8       ??_C@_1M@FBDHPPGD@?$AAe?$AAs?$AA?9?$AAm?$AAx?$AA?$AA@ 00000001800054a8     libucrt:lcidtoname_downlevel.obj
 0001:000044b8       ??_C@_1M@DPAGLNDH@?$AAe?$AAs?$AA?9?$AAn?$AAi?$AA?$AA@ 00000001800054b8     libucrt:lcidtoname_downlevel.obj
 0001:000044c8       ??_C@_1M@MDGOPGDD@?$AAe?$AAs?$AA?9?$AAp?$AAa?$AA?$AA@ 00000001800054c8     libucrt:lcidtoname_downlevel.obj
 0001:000044d8       ??_C@_1M@EMAMGBGE@?$AAe?$AAs?$AA?9?$AAp?$AAe?$AA?$AA@ 00000001800054d8     libucrt:lcidtoname_downlevel.obj
 0001:000044e8       ??_C@_1M@IBMCAOEC@?$AAe?$AAs?$AA?9?$AAp?$AAr?$AA?$AA@ 00000001800054e8     libucrt:lcidtoname_downlevel.obj
 0001:000044f8       ??_C@_1M@FGMDIJED@?$AAe?$AAs?$AA?9?$AAp?$AAy?$AA?$AA@ 00000001800054f8     libucrt:lcidtoname_downlevel.obj
 0001:00004508       ??_C@_1M@IIDEOLLL@?$AAe?$AAs?$AA?9?$AAs?$AAv?$AA?$AA@ 0000000180005508     libucrt:lcidtoname_downlevel.obj
 0001:00004518       ??_C@_1M@GAOBIPA@?$AAe?$AAs?$AA?9?$AAu?$AAy?$AA?$AA@ 0000000180005518     libucrt:lcidtoname_downlevel.obj
 0001:00004528       ??_C@_1M@JKFFICHJ@?$AAe?$AAs?$AA?9?$AAv?$AAe?$AA?$AA@ 0000000180005528     libucrt:lcidtoname_downlevel.obj
 0001:00004538       ??_C@_1M@PNMLOJDF@?$AAe?$AAt?$AA?9?$AAe?$AAe?$AA?$AA@ 0000000180005538     libucrt:lcidtoname_downlevel.obj
 0001:00004548       ??_C@_1M@GHHLIKEI@?$AAe?$AAu?$AA?9?$AAe?$AAs?$AA?$AA@ 0000000180005548     libucrt:lcidtoname_downlevel.obj
 0001:00004558       ??_C@_1M@PBNONODE@?$AAf?$AAa?$AA?9?$AAi?$AAr?$AA?$AA@ 0000000180005558     libucrt:lcidtoname_downlevel.obj
 0001:00004568       ??_C@_1M@JEEHPMIL@?$AAf?$AAi?$AA?9?$AAf?$AAi?$AA?$AA@ 0000000180005568     libucrt:lcidtoname_downlevel.obj
 0001:00004578       ??_C@_1M@LMDCNDBA@?$AAf?$AAo?$AA?9?$AAf?$AAo?$AA?$AA@ 0000000180005578     libucrt:lcidtoname_downlevel.obj
 0001:00004588       ??_C@_1M@JKEOHLDK@?$AAf?$AAr?$AA?9?$AAb?$AAe?$AA?$AA@ 0000000180005588     libucrt:lcidtoname_downlevel.obj
 0001:00004598       ??_C@_1M@NOHADPMI@?$AAf?$AAr?$AA?9?$AAc?$AAa?$AA?$AA@ 0000000180005598     libucrt:lcidtoname_downlevel.obj
 0001:000045a8       ??_C@_1M@KDHIHAEC@?$AAf?$AAr?$AA?9?$AAc?$AAh?$AA?$AA@ 00000001800055a8     libucrt:lcidtoname_downlevel.obj
 0001:000045b8       ??_C@_1M@MMBBFGAK@?$AAf?$AAr?$AA?9?$AAf?$AAr?$AA?$AA@ 00000001800055b8     libucrt:lcidtoname_downlevel.obj
 0001:000045c8       ??_C@_1M@PAFNENNF@?$AAf?$AAr?$AA?9?$AAl?$AAu?$AA?$AA@ 00000001800055c8     libucrt:lcidtoname_downlevel.obj
 0001:000045d8       ??_C@_1M@EOHDJGDD@?$AAf?$AAr?$AA?9?$AAm?$AAc?$AA?$AA@ 00000001800055d8     libucrt:lcidtoname_downlevel.obj
 0001:000045e8       ??_C@_1M@FAPLLOPF@?$AAg?$AAl?$AA?9?$AAe?$AAs?$AA?$AA@ 00000001800055e8     libucrt:lcidtoname_downlevel.obj
 0001:000045f8       ??_C@_1M@FOPBFLOO@?$AAg?$AAu?$AA?9?$AAi?$AAn?$AA?$AA@ 00000001800055f8     libucrt:lcidtoname_downlevel.obj
 0001:00004608       ??_C@_1M@KBMCINPM@?$AAh?$AAe?$AA?9?$AAi?$AAl?$AA?$AA@ 0000000180005608     libucrt:lcidtoname_downlevel.obj
 0001:00004618       ??_C@_1M@BBPHKFPJ@?$AAh?$AAi?$AA?9?$AAi?$AAn?$AA?$AA@ 0000000180005618     libucrt:lcidtoname_downlevel.obj
 0001:00004628       ??_C@_1M@PMBNDPHD@?$AAh?$AAr?$AA?9?$AAb?$AAa?$AA?$AA@ 0000000180005628     libucrt:lcidtoname_downlevel.obj
 0001:00004638       ??_C@_1M@BPCKOEGE@?$AAh?$AAr?$AA?9?$AAh?$AAr?$AA?$AA@ 0000000180005638     libucrt:lcidtoname_downlevel.obj
 0001:00004648       ??_C@_1M@GACBMHKE@?$AAh?$AAu?$AA?9?$AAh?$AAu?$AA?$AA@ 0000000180005648     libucrt:lcidtoname_downlevel.obj
 0001:00004658       ??_C@_1M@MILPAJJC@?$AAh?$AAy?$AA?9?$AAa?$AAm?$AA?$AA@ 0000000180005658     libucrt:lcidtoname_downlevel.obj
 0001:00004668       ??_C@_1M@BABBICEC@?$AAi?$AAd?$AA?9?$AAi?$AAd?$AA?$AA@ 0000000180005668     libucrt:lcidtoname_downlevel.obj
 0001:00004678       ??_C@_1M@BIKNHHPF@?$AAi?$AAs?$AA?9?$AAi?$AAs?$AA?$AA@ 0000000180005678     libucrt:lcidtoname_downlevel.obj
 0001:00004688       ??_C@_1M@NMPCJPHE@?$AAi?$AAt?$AA?9?$AAc?$AAh?$AA?$AA@ 0000000180005688     libucrt:lcidtoname_downlevel.obj
 0001:00004698       ??_C@_1M@GHKGFEDF@?$AAi?$AAt?$AA?9?$AAi?$AAt?$AA?$AA@ 0000000180005698     libucrt:lcidtoname_downlevel.obj
 0001:000046a8       ??_C@_1M@NIEJCJJA@?$AAj?$AAa?$AA?9?$AAj?$AAp?$AA?$AA@ 00000001800056a8     libucrt:lcidtoname_downlevel.obj
 0001:000046b8       ??_C@_1M@JILFNBIM@?$AAk?$AAa?$AA?9?$AAg?$AAe?$AA?$AA@ 00000001800056b8     libucrt:lcidtoname_downlevel.obj
 0001:000046c8       ??_C@_1M@PACPMGPH@?$AAk?$AAk?$AA?9?$AAk?$AAz?$AA?$AA@ 00000001800056c8     libucrt:lcidtoname_downlevel.obj
 0001:000046d8       ??_C@_1M@IELFGMHA@?$AAk?$AAn?$AA?9?$AAi?$AAn?$AA?$AA@ 00000001800056d8     libucrt:lcidtoname_downlevel.obj
 0001:000046e8       ??_C@_1O@IBBJHCH@?$AAk?$AAo?$AAk?$AA?9?$AAi?$AAn?$AA?$AA@ 00000001800056e8     libucrt:lcidtoname_downlevel.obj
 0001:000046f8       ??_C@_1M@DMHAEOGC@?$AAk?$AAo?$AA?9?$AAk?$AAr?$AA?$AA@ 00000001800056f8     libucrt:lcidtoname_downlevel.obj
 0001:00004708       ??_C@_1M@HBAHBIGA@?$AAk?$AAy?$AA?9?$AAk?$AAg?$AA?$AA@ 0000000180005708     libucrt:lcidtoname_downlevel.obj
 0001:00004718       ??_C@_1M@KPMILCJG@?$AAl?$AAt?$AA?9?$AAl?$AAt?$AA?$AA@ 0000000180005718     libucrt:lcidtoname_downlevel.obj
 0001:00004728       ??_C@_1M@BDEKKCA@?$AAl?$AAv?$AA?9?$AAl?$AAv?$AA?$AA@ 0000000180005728     libucrt:lcidtoname_downlevel.obj
 0001:00004738       ??_C@_1M@ELCKCCJJ@?$AAm?$AAi?$AA?9?$AAn?$AAz?$AA?$AA@ 0000000180005738     libucrt:lcidtoname_downlevel.obj
 0001:00004748       ??_C@_1M@CBOOLAPA@?$AAm?$AAk?$AA?9?$AAm?$AAk?$AA?$AA@ 0000000180005748     libucrt:lcidtoname_downlevel.obj
 0001:00004758       ??_C@_1M@GPHNBJKN@?$AAm?$AAl?$AA?9?$AAi?$AAn?$AA?$AA@ 0000000180005758     libucrt:lcidtoname_downlevel.obj
 0001:00004768       ??_C@_1M@PABJILIG@?$AAm?$AAn?$AA?9?$AAm?$AAn?$AA?$AA@ 0000000180005768     libucrt:lcidtoname_downlevel.obj
 0001:00004778       ??_C@_1M@FGBKKIPG@?$AAm?$AAr?$AA?9?$AAi?$AAn?$AA?$AA@ 0000000180005778     libucrt:lcidtoname_downlevel.obj
 0001:00004788       ??_C@_1M@NDBPDDAL@?$AAm?$AAs?$AA?9?$AAb?$AAn?$AA?$AA@ 0000000180005788     libucrt:lcidtoname_downlevel.obj
 0001:00004798       ??_C@_1M@OPIHOOPI@?$AAm?$AAs?$AA?9?$AAm?$AAy?$AA?$AA@ 0000000180005798     libucrt:lcidtoname_downlevel.obj
 0001:000047a8       ??_C@_1M@PPDBCNFM@?$AAm?$AAt?$AA?9?$AAm?$AAt?$AA?$AA@ 00000001800057a8     libucrt:lcidtoname_downlevel.obj
 0001:000047b8       ??_C@_1M@KDJDKMDD@?$AAn?$AAb?$AA?9?$AAn?$AAo?$AA?$AA@ 00000001800057b8     libucrt:lcidtoname_downlevel.obj
 0001:000047c8       ??_C@_1M@KFCFLMJP@?$AAn?$AAl?$AA?9?$AAb?$AAe?$AA?$AA@ 00000001800057c8     libucrt:lcidtoname_downlevel.obj
 0001:000047d8       ??_C@_1M@KPOPDDGO@?$AAn?$AAl?$AA?9?$AAn?$AAl?$AA?$AA@ 00000001800057d8     libucrt:lcidtoname_downlevel.obj
 0001:000047e8       ??_C@_1M@LJKPEMLN@?$AAn?$AAn?$AA?9?$AAn?$AAo?$AA?$AA@ 00000001800057e8     libucrt:lcidtoname_downlevel.obj
 0001:000047f8       ??_C@_1M@BDGHHBFL@?$AAn?$AAs?$AA?9?$AAz?$AAa?$AA?$AA@ 00000001800057f8     libucrt:lcidtoname_downlevel.obj
 0001:00004808       ??_C@_1M@IDEHOAP@?$AAp?$AAa?$AA?9?$AAi?$AAn?$AA?$AA@ 0000000180005808     libucrt:lcidtoname_downlevel.obj
 0001:00004818       ??_C@_1M@HDBKGOGH@?$AAp?$AAl?$AA?9?$AAp?$AAl?$AA?$AA@ 0000000180005818     libucrt:lcidtoname_downlevel.obj
 0001:00004828       ??_C@_1M@LJLLCMEH@?$AAp?$AAt?$AA?9?$AAb?$AAr?$AA?$AA@ 0000000180005828     libucrt:lcidtoname_downlevel.obj
 0001:00004838       ??_C@_1M@NCMONAAL@?$AAp?$AAt?$AA?9?$AAp?$AAt?$AA?$AA@ 0000000180005838     libucrt:lcidtoname_downlevel.obj
 0001:00004848       ??_C@_1O@EAKMAJDN@?$AAq?$AAu?$AAz?$AA?9?$AAb?$AAo?$AA?$AA@ 0000000180005848     libucrt:lcidtoname_downlevel.obj
 0001:00004858       ??_C@_1O@BHHPIGDN@?$AAq?$AAu?$AAz?$AA?9?$AAe?$AAc?$AA?$AA@ 0000000180005858     libucrt:lcidtoname_downlevel.obj
 0001:00004868       ??_C@_1O@GBAPEKMJ@?$AAq?$AAu?$AAz?$AA?9?$AAp?$AAe?$AA?$AA@ 0000000180005868     libucrt:lcidtoname_downlevel.obj
 0001:00004878       ??_C@_1M@CLGLEFBO@?$AAr?$AAo?$AA?9?$AAr?$AAo?$AA?$AA@ 0000000180005878     libucrt:lcidtoname_downlevel.obj
 0001:00004888       ??_C@_1M@CEEDODME@?$AAr?$AAu?$AA?9?$AAr?$AAu?$AA?$AA@ 0000000180005888     libucrt:lcidtoname_downlevel.obj
 0001:00004898       ??_C@_1M@HPKKKMPP@?$AAs?$AAa?$AA?9?$AAi?$AAn?$AA?$AA@ 0000000180005898     libucrt:lcidtoname_downlevel.obj
 0001:000048a8       ??_C@_1M@BKMAIGOJ@?$AAs?$AAe?$AA?9?$AAf?$AAi?$AA?$AA@ 00000001800058a8     libucrt:lcidtoname_downlevel.obj
 0001:000048b8       ??_C@_1M@NDPIFLFI@?$AAs?$AAe?$AA?9?$AAn?$AAo?$AA?$AA@ 00000001800058b8     libucrt:lcidtoname_downlevel.obj
 0001:000048c8       ??_C@_1M@DANKKHJ@?$AAs?$AAe?$AA?9?$AAs?$AAe?$AA?$AA@ 00000001800058c8     libucrt:lcidtoname_downlevel.obj
 0001:000048d8       ??_C@_1M@PNBLONPJ@?$AAs?$AAk?$AA?9?$AAs?$AAk?$AA?$AA@ 00000001800058d8     libucrt:lcidtoname_downlevel.obj
 0001:000048e8       ??_C@_1M@LFMODOAL@?$AAs?$AAl?$AA?9?$AAs?$AAi?$AA?$AA@ 00000001800058e8     libucrt:lcidtoname_downlevel.obj
 0001:000048f8       ??_C@_1O@DFKOMPG@?$AAs?$AAm?$AAa?$AA?9?$AAn?$AAo?$AA?$AA@ 00000001800058f8     libucrt:lcidtoname_downlevel.obj
 0001:00004908       ??_C@_1O@NDKPBNNH@?$AAs?$AAm?$AAa?$AA?9?$AAs?$AAe?$AA?$AA@ 0000000180005908     libucrt:lcidtoname_downlevel.obj
 0001:00004918       ??_C@_1O@PLLKBHAB@?$AAs?$AAm?$AAj?$AA?9?$AAn?$AAo?$AA?$AA@ 0000000180005918     libucrt:lcidtoname_downlevel.obj
 0001:00004928       ??_C@_1O@CLEPOGCA@?$AAs?$AAm?$AAj?$AA?9?$AAs?$AAe?$AA?$AA@ 0000000180005928     libucrt:lcidtoname_downlevel.obj
 0001:00004938       ??_C@_1O@DLGJGKMK@?$AAs?$AAm?$AAn?$AA?9?$AAf?$AAi?$AA?$AA@ 0000000180005938     libucrt:lcidtoname_downlevel.obj
 0001:00004948       ??_C@_1O@OJDJGAJC@?$AAs?$AAm?$AAs?$AA?9?$AAf?$AAi?$AA?$AA@ 0000000180005948     libucrt:lcidtoname_downlevel.obj
 0001:00004958       ??_C@_1M@BOFOGHPB@?$AAs?$AAq?$AA?9?$AAa?$AAl?$AA?$AA@ 0000000180005958     libucrt:lcidtoname_downlevel.obj
 0001:00004968       ??_C@_1BG@LJBBIPGB@?$AAs?$AAr?$AA?9?$AAb?$AAa?$AA?9?$AAc?$AAy?$AAr?$AAl?$AA?$AA@ 0000000180005968     libucrt:lcidtoname_downlevel.obj
 0001:00004980       ??_C@_1BG@JLBENFOE@?$AAs?$AAr?$AA?9?$AAb?$AAa?$AA?9?$AAl?$AAa?$AAt?$AAn?$AA?$AA@ 0000000180005980     libucrt:lcidtoname_downlevel.obj
 0001:00004998       ??_C@_1BG@KODPNHE@?$AAs?$AAr?$AA?9?$AAs?$AAp?$AA?9?$AAc?$AAy?$AAr?$AAl?$AA?$AA@ 0000000180005998     libucrt:lcidtoname_downlevel.obj
 0001:000049b0       ??_C@_1BG@CIOGKHPB@?$AAs?$AAr?$AA?9?$AAs?$AAp?$AA?9?$AAl?$AAa?$AAt?$AAn?$AA?$AA@ 00000001800059b0     libucrt:lcidtoname_downlevel.obj
 0001:000049c8       ??_C@_1M@NGFJLMAC@?$AAs?$AAv?$AA?9?$AAf?$AAi?$AA?$AA@ 00000001800059c8     libucrt:lcidtoname_downlevel.obj
 0001:000049d8       ??_C@_1M@MPJEJAJC@?$AAs?$AAv?$AA?9?$AAs?$AAe?$AA?$AA@ 00000001800059d8     libucrt:lcidtoname_downlevel.obj
 0001:000049e8       ??_C@_1M@MPNDHLFK@?$AAs?$AAw?$AA?9?$AAk?$AAe?$AA?$AA@ 00000001800059e8     libucrt:lcidtoname_downlevel.obj
 0001:000049f8       ??_C@_1O@KOHBJJI@?$AAs?$AAy?$AAr?$AA?9?$AAs?$AAy?$AA?$AA@ 00000001800059f8     libucrt:lcidtoname_downlevel.obj
 0001:00004a08       ??_C@_1M@LDCEFHA@?$AAt?$AAa?$AA?9?$AAi?$AAn?$AA?$AA@ 0000000180005a08     libucrt:lcidtoname_downlevel.obj
 0001:00004a18       ??_C@_1M@CNJOFAK@?$AAt?$AAe?$AA?9?$AAi?$AAn?$AA?$AA@ 0000000180005a18     libucrt:lcidtoname_downlevel.obj
 0001:00004a28       ??_C@_1M@GNAECACD@?$AAt?$AAh?$AA?9?$AAt?$AAh?$AA?$AA@ 0000000180005a28     libucrt:lcidtoname_downlevel.obj
 0001:00004a38       ??_C@_1M@CHBIHOJO@?$AAt?$AAn?$AA?9?$AAz?$AAa?$AA?$AA@ 0000000180005a38     libucrt:lcidtoname_downlevel.obj
 0001:00004a48       ??_C@_1M@GCCMIGPJ@?$AAt?$AAr?$AA?9?$AAt?$AAr?$AA?$AA@ 0000000180005a48     libucrt:lcidtoname_downlevel.obj
 0001:00004a58       ??_C@_1M@CELMCNBK@?$AAt?$AAt?$AA?9?$AAr?$AAu?$AA?$AA@ 0000000180005a58     libucrt:lcidtoname_downlevel.obj
 0001:00004a68       ??_C@_1M@KLMCELGA@?$AAu?$AAk?$AA?9?$AAu?$AAa?$AA?$AA@ 0000000180005a68     libucrt:lcidtoname_downlevel.obj
 0001:00004a78       ??_C@_1M@EPAJJAJF@?$AAu?$AAr?$AA?9?$AAp?$AAk?$AA?$AA@ 0000000180005a78     libucrt:lcidtoname_downlevel.obj
 0001:00004a88       ??_C@_1BG@GEGPMCDJ@?$AAu?$AAz?$AA?9?$AAu?$AAz?$AA?9?$AAc?$AAy?$AAr?$AAl?$AA?$AA@ 0000000180005a88     libucrt:lcidtoname_downlevel.obj
 0001:00004aa0       ??_C@_1BG@EGGKJILM@?$AAu?$AAz?$AA?9?$AAu?$AAz?$AA?9?$AAl?$AAa?$AAt?$AAn?$AA?$AA@ 0000000180005aa0     libucrt:lcidtoname_downlevel.obj
 0001:00004ab8       ??_C@_1M@GFOCLFF@?$AAv?$AAi?$AA?9?$AAv?$AAn?$AA?$AA@ 0000000180005ab8     libucrt:lcidtoname_downlevel.obj
 0001:00004ac8       ??_C@_1M@CPAMEDFI@?$AAx?$AAh?$AA?9?$AAz?$AAa?$AA?$AA@ 0000000180005ac8     libucrt:lcidtoname_downlevel.obj
 0001:00004ad8       ??_C@_1O@EBKIFIGN@?$AAz?$AAh?$AA?9?$AAc?$AAh?$AAs?$AA?$AA@ 0000000180005ad8     libucrt:lcidtoname_downlevel.obj
 0001:00004ae8       ??_C@_1O@NMHPGANE@?$AAz?$AAh?$AA?9?$AAc?$AAh?$AAt?$AA?$AA@ 0000000180005ae8     libucrt:lcidtoname_downlevel.obj
 0001:00004af8       ??_C@_1M@LPINJOMC@?$AAz?$AAh?$AA?9?$AAc?$AAn?$AA?$AA@ 0000000180005af8     libucrt:lcidtoname_downlevel.obj
 0001:00004b08       ??_C@_1M@OCJEJODD@?$AAz?$AAh?$AA?9?$AAh?$AAk?$AA?$AA@ 0000000180005b08     libucrt:lcidtoname_downlevel.obj
 0001:00004b18       ??_C@_1M@DNDLJINH@?$AAz?$AAh?$AA?9?$AAm?$AAo?$AA?$AA@ 0000000180005b18     libucrt:lcidtoname_downlevel.obj
 0001:00004b28       ??_C@_1M@MBFDNDND@?$AAz?$AAh?$AA?9?$AAs?$AAg?$AA?$AA@ 0000000180005b28     libucrt:lcidtoname_downlevel.obj
 0001:00004b38       ??_C@_1M@IMEPLEPE@?$AAz?$AAh?$AA?9?$AAt?$AAw?$AA?$AA@ 0000000180005b38     libucrt:lcidtoname_downlevel.obj
 0001:00004b48       ??_C@_1M@BBGHNHJP@?$AAz?$AAu?$AA?9?$AAz?$AAa?$AA?$AA@ 0000000180005b48     libucrt:lcidtoname_downlevel.obj
 0001:000059a0       ??_C@_15EMKDOKLE@?$AAa?$AAr?$AA?$AA@ 00000001800069a0     libucrt:lcidtoname_downlevel.obj
 0001:000059a8       ??_C@_15KNPADPLH@?$AAb?$AAg?$AA?$AA@ 00000001800069a8     libucrt:lcidtoname_downlevel.obj
 0001:000059b0       ??_C@_15EDMHLDMO@?$AAc?$AAa?$AA?$AA@ 00000001800069b0     libucrt:lcidtoname_downlevel.obj
 0001:000059b8       ??_C@_1O@BPEAJADD@?$AAz?$AAh?$AA?9?$AAC?$AAH?$AAS?$AA?$AA@ 00000001800069b8     libucrt:lcidtoname_downlevel.obj
 0001:000059c8       ??_C@_15LJNHCMNK@?$AAc?$AAs?$AA?$AA@ 00000001800069c8     libucrt:lcidtoname_downlevel.obj
 0001:000059d0       ??_C@_15FOMCIDHG@?$AAd?$AAa?$AA?$AA@ 00000001800069d0     libucrt:lcidtoname_downlevel.obj
 0001:000059d8       ??_C@_15NBKABECB@?$AAd?$AAe?$AA?$AA@ 00000001800069d8     libucrt:lcidtoname_downlevel.obj
 0001:000059e0       ??_C@_15GHPEIIAO@?$AAe?$AAl?$AA?$AA@ 00000001800069e0     libucrt:lcidtoname_downlevel.obj
 0001:000059e8       ??_C@_15MNPNEAIF@?$AAe?$AAn?$AA?$AA@ 00000001800069e8     libucrt:lcidtoname_downlevel.obj
 0001:000059f0       ??_C@_15GPIOMPMH@?$AAe?$AAs?$AA?$AA@ 00000001800069f0     libucrt:lcidtoname_downlevel.obj
 0001:000059f8       ??_C@_15NGLOAKJC@?$AAf?$AAi?$AA?$AA@ 00000001800069f8     libucrt:lcidtoname_downlevel.obj
 0001:00005a00       ??_C@_15FBKGNKAM@?$AAf?$AAr?$AA?$AA@ 0000000180006a00     libucrt:lcidtoname_downlevel.obj
 0001:00005a08       ??_C@_15KGGCNEFK@?$AAh?$AAe?$AA?$AA@ 0000000180006a08     libucrt:lcidtoname_downlevel.obj
 0001:00005a10       ??_C@_15PGHLIDMF@?$AAh?$AAu?$AA?$AA@ 0000000180006a10     libucrt:lcidtoname_downlevel.obj
 0001:00005a18       ??_C@_15BIEMAPLM@?$AAi?$AAs?$AA?$AA@ 0000000180006a18     libucrt:lcidtoname_downlevel.obj
 0001:00005a20       ??_C@_15IFJLDHAF@?$AAi?$AAt?$AA?$AA@ 0000000180006a20     libucrt:lcidtoname_downlevel.obj
 0001:00005a28       ??_C@_15GEMIOCAG@?$AAj?$AAa?$AA?$AA@ 0000000180006a28     libucrt:lcidtoname_downlevel.obj
 0001:00005a30       ??_C@_15EPELEGJA@?$AAk?$AAo?$AA?$AA@ 0000000180006a30     libucrt:lcidtoname_downlevel.obj
 0001:00005a38       ??_C@_15NDDHIMN@?$AAn?$AAl?$AA?$AA@ 0000000180006a38     libucrt:lcidtoname_downlevel.obj
 0001:00005a40       ??_C@_15BPIGNHCD@?$AAn?$AAo?$AA?$AA@ 0000000180006a40     libucrt:lcidtoname_downlevel.obj
 0001:00005a48       ??_C@_15DEOPBLCG@?$AAp?$AAl?$AA?$AA@ 0000000180006a48     libucrt:lcidtoname_downlevel.obj
 0001:00005a50       ??_C@_15KBECGEFG@?$AAp?$AAt?$AA?$AA@ 0000000180006a50     libucrt:lcidtoname_downlevel.obj
 0001:00005a58       ??_C@_15GLJCBFMD@?$AAr?$AAo?$AA?$AA@ 0000000180006a58     libucrt:lcidtoname_downlevel.obj
 0001:00005a60       ??_C@_15FEDGKCDI@?$AAr?$AAu?$AA?$AA@ 0000000180006a60     libucrt:lcidtoname_downlevel.obj
 0001:00005a68       ??_C@_15GLKMLLHM@?$AAh?$AAr?$AA?$AA@ 0000000180006a68     libucrt:lcidtoname_downlevel.obj
 0001:00005a70       ??_C@_15CPKMFBDB@?$AAs?$AAk?$AA?$AA@ 0000000180006a70     libucrt:lcidtoname_downlevel.obj
 0001:00005a78       ??_C@_15BAAIOGMK@?$AAs?$AAq?$AA?$AA@ 0000000180006a78     libucrt:lcidtoname_downlevel.obj
 0001:00005a80       ??_C@_15INNPNOHD@?$AAs?$AAv?$AA?$AA@ 0000000180006a80     libucrt:lcidtoname_downlevel.obj
 0001:00005a88       ??_C@_15CABMMOGH@?$AAt?$AAh?$AA?$AA@ 0000000180006a88     libucrt:lcidtoname_downlevel.obj
 0001:00005a90       ??_C@_15BPLIHJJM@?$AAt?$AAr?$AA?$AA@ 0000000180006a90     libucrt:lcidtoname_downlevel.obj
 0001:00005a98       ??_C@_15NEOEKKDJ@?$AAu?$AAr?$AA?$AA@ 0000000180006a98     libucrt:lcidtoname_downlevel.obj
 0001:00005aa0       ??_C@_15NFICGAJK@?$AAi?$AAd?$AA?$AA@ 0000000180006aa0     libucrt:lcidtoname_downlevel.obj
 0001:00005aa8       ??_C@_15PJPFLCCM@?$AAu?$AAk?$AA?$AA@ 0000000180006aa8     libucrt:lcidtoname_downlevel.obj
 0001:00005ab0       ??_C@_15HPJPHDM@?$AAb?$AAe?$AA?$AA@ 0000000180006ab0     libucrt:lcidtoname_downlevel.obj
 0001:00005ab8       ??_C@_15LCHLGJII@?$AAs?$AAl?$AA?$AA@ 0000000180006ab8     libucrt:lcidtoname_downlevel.obj
 0001:00005ac0       ??_C@_15PCFJPHHO@?$AAe?$AAt?$AA?$AA@ 0000000180006ac0     libucrt:lcidtoname_downlevel.obj
 0001:00005ac8       ??_C@_15HPFPGODN@?$AAl?$AAv?$AA?$AA@ 0000000180006ac8     libucrt:lcidtoname_downlevel.obj
 0001:00005ad0       ??_C@_15NFFGKGLG@?$AAl?$AAt?$AA?$AA@ 0000000180006ad0     libucrt:lcidtoname_downlevel.obj
 0001:00005ad8       ??_C@_15BDAKCCHN@?$AAf?$AAa?$AA?$AA@ 0000000180006ad8     libucrt:lcidtoname_downlevel.obj
 0001:00005ae0       ??_C@_15NFGIAIAJ@?$AAv?$AAi?$AA?$AA@ 0000000180006ae0     libucrt:lcidtoname_downlevel.obj
 0001:00005ae8       ??_C@_15LMKNDMHN@?$AAh?$AAy?$AA?$AA@ 0000000180006ae8     libucrt:lcidtoname_downlevel.obj
 0001:00005af0       ??_C@_15IJBHMCFL@?$AAa?$AAz?$AA?$AA@ 0000000180006af0     libucrt:lcidtoname_downlevel.obj
 0001:00005af8       ??_C@_15EKOFJABL@?$AAe?$AAu?$AA?$AA@ 0000000180006af8     libucrt:lcidtoname_downlevel.obj
 0001:00005b00       ??_C@_15BGHADCNK@?$AAm?$AAk?$AA?$AA@ 0000000180006b00     libucrt:lcidtoname_downlevel.obj
 0001:00005b08       ??_C@_15JDNICKHM@?$AAa?$AAf?$AA?$AA@ 0000000180006b08     libucrt:lcidtoname_downlevel.obj
 0001:00005b10       ??_C@_15KPJEDBKD@?$AAk?$AAa?$AA?$AA@ 0000000180006b10     libucrt:lcidtoname_downlevel.obj
 0001:00005b18       ??_C@_15PDNFFFEO@?$AAf?$AAo?$AA?$AA@ 0000000180006b18     libucrt:lcidtoname_downlevel.obj
 0001:00005b20       ??_C@_15OMLEGLOC@?$AAh?$AAi?$AA?$AA@ 0000000180006b20     libucrt:lcidtoname_downlevel.obj
 0001:00005b28       ??_C@_15IDNNENKK@?$AAm?$AAs?$AA?$AA@ 0000000180006b28     libucrt:lcidtoname_downlevel.obj
 0001:00005b30       ??_C@_15MACJNBMH@?$AAk?$AAk?$AA?$AA@ 0000000180006b30     libucrt:lcidtoname_downlevel.obj
 0001:00005b38       ??_C@_15DKDJEOND@?$AAk?$AAy?$AA?$AA@ 0000000180006b38     libucrt:lcidtoname_downlevel.obj
 0001:00005b40       ??_C@_15DFGDLJBG@?$AAs?$AAw?$AA?$AA@ 0000000180006b40     libucrt:lcidtoname_downlevel.obj
 0001:00005b48       ??_C@_15BBFAICNG@?$AAu?$AAz?$AA?$AA@ 0000000180006b48     libucrt:lcidtoname_downlevel.obj
 0001:00005b50       ??_C@_15DKNDCGEA@?$AAt?$AAt?$AA?$AA@ 0000000180006b50     libucrt:lcidtoname_downlevel.obj
 0001:00005b58       ??_C@_15MGIFMDPL@?$AAp?$AAa?$AA?$AA@ 0000000180006b58     libucrt:lcidtoname_downlevel.obj
 0001:00005b60       ??_C@_15HCNDBBA@?$AAg?$AAu?$AA?$AA@ 0000000180006b60     libucrt:lcidtoname_downlevel.obj
 0001:00005b68       ??_C@_15FNBEIBON@?$AAt?$AAa?$AA?$AA@ 0000000180006b68     libucrt:lcidtoname_downlevel.obj
 0001:00005b70       ??_C@_15NCHGBGLK@?$AAt?$AAe?$AA?$AA@ 0000000180006b70     libucrt:lcidtoname_downlevel.obj
 0001:00005b78       ??_C@_15PHPHCBPF@?$AAk?$AAn?$AA?$AA@ 0000000180006b78     libucrt:lcidtoname_downlevel.obj
 0001:00005b80       ??_C@_15DLGBCKMP@?$AAm?$AAr?$AA?$AA@ 0000000180006b80     libucrt:lcidtoname_downlevel.obj
 0001:00005b88       ??_C@_15EABBLBFF@?$AAs?$AAa?$AA?$AA@ 0000000180006b88     libucrt:lcidtoname_downlevel.obj
 0001:00005b90       ??_C@_15CBKOMCOI@?$AAm?$AAn?$AA?$AA@ 0000000180006b90     libucrt:lcidtoname_downlevel.obj
 0001:00005b98       ??_C@_15CKDMCJAF@?$AAg?$AAl?$AA?$AA@ 0000000180006b98     libucrt:lcidtoname_downlevel.obj
 0001:00005ba0       ??_C@_17CNJFBPG@?$AAk?$AAo?$AAk?$AA?$AA@ 0000000180006ba0     libucrt:lcidtoname_downlevel.obj
 0001:00005ba8       ??_C@_17FFBJICPL@?$AAs?$AAy?$AAr?$AA?$AA@ 0000000180006ba8     libucrt:lcidtoname_downlevel.obj
 0001:00005bb0       ??_C@_17KPNDCPAF@?$AAd?$AAi?$AAv?$AA?$AA@ 0000000180006bb0     libucrt:lcidtoname_downlevel.obj
 0001:00005bb8       ??_C@_1M@OKAHONE@?$AAa?$AAr?$AA?9?$AAS?$AAA?$AA?$AA@ 0000000180006bb8     libucrt:lcidtoname_downlevel.obj
 0001:00005bc8       ??_C@_1M@FFFIGIGK@?$AAb?$AAg?$AA?9?$AAB?$AAG?$AA?$AA@ 0000000180006bc8     libucrt:lcidtoname_downlevel.obj
 0001:00005e30       ??_C@_1BA@BALFACEM@?$AAC?$AAO?$AAN?$AAO?$AAU?$AAT?$AA$?$AA?$AA@ 0000000180006e30     libucrt:initcon.obj
 0001:00005e40       __log10_256_lead           0000000180006e40     libucrt:log10_256_lead_tail_table.obj
 0001:00006650       __log10_256_tail           0000000180007650     libucrt:log10_256_lead_tail_table.obj
 0001:00006e60       __log_F_inv_qword          0000000180007e60     libucrt:log_f_inv_qword_table.obj
 0001:00007670       ??_C@_05HGHHAHAP@log10?$AA@ 0000000180008670     libucrt:log_special.obj
 0001:000076c0       _load_config_used          00000001800086c0     LIBCMT:loadcfg.obj
 0001:000077c0       ??_R4exception@std@@6B@    00000001800087c0     LIBCMT:throw_bad_alloc.obj
 0001:000077e8       ??_R3exception@std@@8      00000001800087e8     LIBCMT:throw_bad_alloc.obj
 0001:00007800       ??_R2exception@std@@8      0000000180008800     LIBCMT:throw_bad_alloc.obj
 0001:00007810       ??_R1A@?0A@EA@exception@std@@8 0000000180008810     LIBCMT:throw_bad_alloc.obj
 0001:00007838       ??_R4bad_alloc@std@@6B@    0000000180008838     LIBCMT:throw_bad_alloc.obj
 0001:00007860       ??_R3bad_alloc@std@@8      0000000180008860     LIBCMT:throw_bad_alloc.obj
 0001:00007878       ??_R2bad_alloc@std@@8      0000000180008878     LIBCMT:throw_bad_alloc.obj
 0001:00007890       ??_R1A@?0A@EA@bad_alloc@std@@8 0000000180008890     LIBCMT:throw_bad_alloc.obj
 0001:000078b8       ??_R4bad_array_new_length@std@@6B@ 00000001800088b8     LIBCMT:throw_bad_alloc.obj
 0001:000078e0       ??_R3bad_array_new_length@std@@8 00000001800088e0     LIBCMT:throw_bad_alloc.obj
 0001:000078f8       ??_R2bad_array_new_length@std@@8 00000001800088f8     LIBCMT:throw_bad_alloc.obj
 0001:00007918       ??_R1A@?0A@EA@bad_array_new_length@std@@8 0000000180008918     LIBCMT:throw_bad_alloc.obj
 0001:00007940       ??_R4type_info@@6B@        0000000180008940     LIBCMT:std_type_info_static.obj
 0001:00007968       ??_R3type_info@@8          0000000180008968     LIBCMT:std_type_info_static.obj
 0001:00007980       ??_R2type_info@@8          0000000180008980     LIBCMT:std_type_info_static.obj
 0001:00007990       ??_R1A@?0A@EA@type_info@@8 0000000180008990     LIBCMT:std_type_info_static.obj
 0001:00007c68       __rtc_iaa                  0000000180008c68     LIBCMT:_initsect_.obj
 0001:00007c70       __rtc_izz                  0000000180008c70     LIBCMT:_initsect_.obj
 0001:00007c78       __rtc_taa                  0000000180008c78     LIBCMT:_initsect_.obj
 0001:00007c80       __rtc_tzz                  0000000180008c80     LIBCMT:_initsect_.obj
 0001:00007ca0       __chkstk                   0000000180008ca0 f   chkstk.obj
 0001:00007ca0       _alloca_probe              0000000180008ca0 f   chkstk.obj
 0001:00007d00       ClosePanelW                0000000180008d00 f   Network.obj
 0001:00007d30       DeleteFilesW               0000000180008d30 f   Network.obj
 0001:00007d50       FreeFindDataW              0000000180008d50 f   Network.obj
 0001:00007d70       GetFindDataW               0000000180008d70 f   Network.obj
 0001:00007d90       GetGlobalInfoW             0000000180008d90 f   Network.obj
 0001:00007e10       GetOpenPanelInfoW          0000000180008e10 f   Network.obj
 0001:00007e20       OpenW                      0000000180008e20 f   Network.obj
 0001:000080a0       ProcessPanelEventW         00000001800090a0 f   Network.obj
 0001:000080c0       ProcessPanelInputW         00000001800090c0 f   Network.obj
 0001:000080e0       SetDirectoryW              00000001800090e0 f   Network.obj
 0001:00008100       ??1?$DialogBuilderBase@UFarDialogItem@@@@MEAA@XZ 0000000180009100 f i NetCfg.obj
 0001:00008180       ??_G?$DialogBuilderBase@UFarDialogItem@@@@MEAAPEAXI@Z 0000000180009180 f i NetCfg.obj
 0001:00008180       ??_E?$DialogBuilderBase@UFarDialogItem@@@@MEAAPEAXI@Z 0000000180009180 f i NetCfg.obj
 0001:000081c0       ??_G?$DialogItemBinding@UFarDialogItem@@@@UEAAPEAXI@Z 00000001800091c0 f i NetCfg.obj
 0001:000081c0       ??_E?$DialogItemBinding@UFarDialogItem@@@@UEAAPEAXI@Z 00000001800091c0 f i NetCfg.obj
 0001:000081f0       ??_EPluginEditFieldBinding@@UEAAPEAXI@Z 00000001800091f0 f i NetClass.obj
 0001:000081f0       ??_EPluginCheckBoxBinding@@UEAAPEAXI@Z 00000001800091f0 f i NetCfg.obj
 0001:000081f0       ??_GPluginCheckBoxBinding@@UEAAPEAXI@Z 00000001800091f0 f i NetCfg.obj
 0001:000081f0       ??_GPluginEditFieldBinding@@UEAAPEAXI@Z 00000001800091f0 f i NetClass.obj
 0001:00008220       ??_EPluginDialogBuilder@@UEAAPEAXI@Z 0000000180009220 f i NetCfg.obj
 0001:00008220       ??_GPluginDialogBuilder@@UEAAPEAXI@Z 0000000180009220 f i NetCfg.obj
 0001:00008270       ??_GPluginIntEditFieldBinding@@UEAAPEAXI@Z 0000000180009270 f i NetCfg.obj
 0001:00008270       ??_EPluginIntEditFieldBinding@@UEAAPEAXI@Z 0000000180009270 f i NetCfg.obj
 0001:00008270       ??_GPluginUIntEditFieldBinding@@UEAAPEAXI@Z 0000000180009270 f i NetCfg.obj
 0001:00008270       ??_EPluginUIntEditFieldBinding@@UEAAPEAXI@Z 0000000180009270 f i NetCfg.obj
 0001:000082a0       ??_GPluginRadioButtonBinding@@UEAAPEAXI@Z 00000001800092a0 f i NetCfg.obj
 0001:000082a0       ??_EPluginRadioButtonBinding@@UEAAPEAXI@Z 00000001800092a0 f i NetCfg.obj
 0001:000082d0       ?AddButtons@?$DialogBuilderBase@UFarDialogItem@@@@QEAAXHPEBHHH@Z 00000001800092d0 f i NetCfg.obj
 0001:000085e0       ?AddDialogItem@?$DialogBuilderBase@UFarDialogItem@@@@IEAAPEAUFarDialogItem@@W4FARDIALOGITEMTYPES@@PEB_W@Z 00000001800095e0 f i NetCfg.obj
 0001:00008790       ?CreateCheckBoxBinding@?$DialogBuilderBase@UFarDialogItem@@@@MEAAPEAU?$DialogItemBinding@UFarDialogItem@@@@PEAHH@Z 0000000180009790 f i NetCfg.obj
 0001:00008790       ?GetLangString@?$DialogBuilderBase@UFarDialogItem@@@@MEAAPEB_WH@Z 0000000180009790 f i NetCfg.obj
 0001:00008790       ?AddIntEditField@?$DialogBuilderBase@UFarDialogItem@@@@UEAAPEAUFarDialogItem@@PEAHH@Z 0000000180009790 f i NetCfg.obj
 0001:00008790       ?ReadFavoriteItem@@YAHPEAU_FAVORITEITEM@@@Z 0000000180009790 f i NetFavorites.obj
 0001:00008790       ?GetFavoriteResource@@YAHPEB_WPEAU_NETRESOURCEW@@@Z 0000000180009790 f i NetFavorites.obj
 0001:00008790       ?AddUIntEditField@?$DialogBuilderBase@UFarDialogItem@@@@UEAAPEAUFarDialogItem@@PEAIH@Z 0000000180009790 f i NetCfg.obj
 0001:00008790       ?CreateSubFolder@@YAHPEA_W0@Z 0000000180009790 f i NetFavorites.obj
 0001:00008790       ?CreateRadioButtonBinding@?$DialogBuilderBase@UFarDialogItem@@@@MEAAPEAU?$DialogItemBinding@UFarDialogItem@@@@PEAH@Z 0000000180009790 f i NetCfg.obj
 0001:00008790       ?RemoveFromFavorites@@YAHPEA_WP6AK0PEAX@Z1@Z 0000000180009790 f i NetFavorites.obj
 0001:000087a0       ?AddIntEditField@PluginDialogBuilder@@UEAAPEAUFarDialogItem@@PEAHH@Z 00000001800097a0 f i NetCfg.obj
 0001:00008900       ?AddRadioButtons@?$DialogBuilderBase@UFarDialogItem@@@@QEAAPEAUFarDialogItem@@PEAHHQEBH_N@Z 0000000180009900 f i NetCfg.obj
 0001:00008c10       ?AddUIntEditField@PluginDialogBuilder@@UEAAPEAUFarDialogItem@@PEAIH@Z 0000000180009c10 f i NetCfg.obj
 0001:00008d70       ?Config@@YAHXZ             0000000180009d70 f   NetCfg.obj
 0001:00009c10       ?CreateCheckBoxBinding@PluginDialogBuilder@@MEAAPEAU?$DialogItemBinding@UFarDialogItem@@@@PEAHH@Z 000000018000ac10 f i NetCfg.obj
 0001:00009c90       ?CreateRadioButtonBinding@PluginDialogBuilder@@MEAAPEAU?$DialogItemBinding@UFarDialogItem@@@@PEAH@Z 000000018000ac90 f i NetCfg.obj
 0001:00009d00       ?DoShowDialog@?$DialogBuilderBase@UFarDialogItem@@@@MEAA_JXZ 000000018000ad00 f i NetCfg.obj
 0001:00009d10       ?DoShowDialog@PluginDialogBuilder@@MEAA_JXZ 000000018000ad10 f i NetCfg.obj
 0001:00009dc0       ?GetLangString@PluginDialogBuilder@@MEAAPEB_WH@Z 000000018000adc0 f i NetCfg.obj
 0001:00009dd0       ?WriteFavoriteItem@@YAXPEAU_FAVORITEITEM@@PEA_W@Z 000000018000add0 f i NetFavorites.obj
 0001:00009dd0       ?SaveValue@?$DialogItemBinding@UFarDialogItem@@@@UEAAXPEAUFarDialogItem@@H@Z 000000018000add0 f i NetCfg.obj
 0001:00009dd0       _guard_check_icall_nop     000000018000add0 f i LIBCMT:guard_support.obj
 0001:00009dd0       ?InitDialogItem@?$DialogBuilderBase@UFarDialogItem@@@@MEAAXPEAUFarDialogItem@@PEB_W@Z 000000018000add0 f i NetCfg.obj
 0001:00009de0       ?InitDialogItem@PluginDialogBuilder@@MEAAXPEAUFarDialogItem@@PEB_W@Z 000000018000ade0 f i NetCfg.obj
 0001:00009e10       ?SaveValue@PluginCheckBoxBinding@@UEAAXPEAUFarDialogItem@@H@Z 000000018000ae10 f i NetCfg.obj
 0001:00009e70       ?SaveValue@PluginIntEditFieldBinding@@UEAAXPEAUFarDialogItem@@H@Z 000000018000ae70 f i NetCfg.obj
 0001:00009ec0       ?SaveValue@PluginRadioButtonBinding@@UEAAXPEAUFarDialogItem@@H@Z 000000018000aec0 f i NetCfg.obj
 0001:00009f10       ?SaveValue@PluginUIntEditFieldBinding@@UEAAXPEAUFarDialogItem@@H@Z 000000018000af10 f i NetCfg.obj
 0001:00009f60       ?ShowDialog@?$DialogBuilderBase@UFarDialogItem@@@@QEAA_NXZ 000000018000af60 f i NetCfg.obj
 0001:0000a0c0       ?TextWidth@?$DialogBuilderBase@UFarDialogItem@@@@MEAAHAEBUFarDialogItem@@@Z 000000018000b0c0 f i NetCfg.obj
 0001:0000a0d0       ?TextWidth@PluginDialogBuilder@@MEAAHAEBUFarDialogItem@@@Z 000000018000b0d0 f i NetCfg.obj
 0001:0000a0e0       ?UpdateBorderSize@?$DialogBuilderBase@UFarDialogItem@@@@IEAAXXZ 000000018000b0e0 f i NetCfg.obj
 0001:0000a2c0       GetPluginInfoW             000000018000b2c0 f   NetCfg.obj
 0001:0000a370       ??0NetBrowser@@QEAA@XZ     000000018000b370 f   NetClass.obj
 0001:0000a520       ??0NetResourceList@@QEAA@XZ 000000018000b520 f   NetClass.obj
 0001:0000a530       ??1NetBrowser@@QEAA@XZ     000000018000b530 f   NetClass.obj
 0001:0000a560       ??4NetResourceList@@QEAAAEAV0@AEAV0@@Z 000000018000b560 f   NetClass.obj
 0001:0000a620       ?AddConnectionExplicit@NetBrowser@@SAHPEAU_NETRESOURCEW@@H@Z 000000018000b620 f   NetClass.obj
 0001:0000a720       ?AddConnectionFromFavorites@NetBrowser@@SAHPEAU_NETRESOURCEW@@H@Z 000000018000b720 f   NetClass.obj
 0001:0000a7d0       ?AddConnectionWithLogon@NetBrowser@@SAHPEAU_NETRESOURCEW@@PEA_W1H@Z 000000018000b7d0 f   NetClass.obj
 0001:0000a970       ?AskMapDrive@NetBrowser@@AEAAHPEA_WAEAH@Z 000000018000b970 f   NetClass.obj
 0001:0000ac40       ?CancelConnection@NetBrowser@@AEAAHPEB_W@Z 000000018000bc40 f   NetClass.obj
 0001:0000b050       ?ChangeToDirectory@NetBrowser@@AEAAHPEB_W_K_N@Z 000000018000c050 f   NetClass.obj
 0001:0000b5a0       ?Clear@NetResourceList@@QEAAXXZ 000000018000c5a0 f   NetClass.obj
 0001:0000b620       ?ConfirmCancelConnection@NetBrowser@@AEAAHPEA_W0AEAH@Z 000000018000c620 f   NetClass.obj
 0001:0000bb70       ?CopyNetResource@NetResourceList@@SAXAEAU_NETRESOURCEW@@AEBU2@@Z 000000018000cb70 f   NetClass.obj
 0001:0000bc30       ?DeleteFiles@NetBrowser@@QEAAHPEAUPluginPanelItem@@H_K@Z 000000018000cc30 f   NetClass.obj
 0001:0000bcf0       ?DisconnectFromServer@NetBrowser@@CAXPEAU_NETRESOURCEW@@@Z 000000018000ccf0 f   NetClass.obj
 0001:0000bf40       ?EditFavorites@NetBrowser@@QEAAHXZ 000000018000cf40 f   NetClass.obj
 0001:0000c260       ?Enumerate@NetResourceList@@QEAAHKKKPEAU_NETRESOURCEW@@@Z 000000018000d260 f   NetClass.obj
 0001:0000c410       ?EnumerateNetList@NetBrowser@@AEAAHXZ 000000018000d410 f   NetClass.obj
 0001:0000c5e0       ?FileNames2Clipboard@NetBrowser@@AEAAXH@Z 000000018000d5e0 f   NetClass.obj
 0001:0000c8d0       ?FreeFindData@NetBrowser@@QEAAXPEAUPluginPanelItem@@H@Z 000000018000d8d0 f   NetClass.obj
 0001:0000c950       ?GetFindData@NetBrowser@@QEAAHPEAPEAUPluginPanelItem@@PEA_K_K@Z 000000018000d950 f   NetClass.obj
 0001:0000cd60       ?GetHiddenShares@NetBrowser@@AEAAXXZ 000000018000dd60 f   NetClass.obj
 0001:0000d050       ?GetLocalName@NetBrowser@@AEAAXPEA_W0@Z 000000018000e050 f   NetClass.obj
 0001:0000d130       ?GetNameAndPassword@NetBrowser@@CAHPEAU__NameAndPassInfo@@@Z 000000018000e130 f   NetClass.obj
 0001:0000d6e0       ?GetOpenPanelInfo@NetBrowser@@QEAAXPEAUOpenPanelInfo@@@Z 000000018000e6e0 f   NetClass.obj
 0001:0000d9e0       ?GetRemoteName@NetBrowser@@AEAAXPEAU_NETRESOURCEW@@PEA_W@Z 000000018000e9e0 f   NetClass.obj
 0001:0000daa0       ?GetResourceInfo@NetBrowser@@SAHPEA_WPEAU_NETRESOURCEW@@@Z 000000018000eaa0 f   NetClass.obj
 0001:0000dba0       ?GetResourceParent@NetBrowser@@SAHAEAU_NETRESOURCEW@@PEAU2@@Z 000000018000eba0 f   NetClass.obj
 0001:0000dd10       ?GotoComputer@NetBrowser@@AEAAHPEB_W@Z 000000018000ed10 f   NetClass.obj
 0001:0000e150       ?GotoLocalNetwork@NetBrowser@@QEAAXXZ 000000018000f150 f   NetClass.obj
 0001:0000e350       ?Inflate@SimpleString@@QEAAX_K@Z 000000018000f350 f i NetClass.obj
 0001:0000e3e0       ?InitNetResource@NetResourceList@@SAXAEAU_NETRESOURCEW@@@Z 000000018000f3e0 f   NetClass.obj
 0001:0000e400       ?IsMSNetResource@NetBrowser@@SAHAEBU_NETRESOURCEW@@@Z 000000018000f400 f   NetClass.obj
 0001:0000e440       ?IsReadable@NetBrowser@@AEAAHPEB_W@Z 000000018000f440 f   NetClass.obj
 0001:0000e4f0       ?IsResourceReadable@NetBrowser@@SAHAEAU_NETRESOURCEW@@@Z 000000018000f4f0 f   NetClass.obj
 0001:0000e5b0       ?MapNetworkDrive@NetBrowser@@AEAAHPEB_WHH@Z 000000018000f5b0 f   NetClass.obj
 0001:0000e8d0       ?ProcessEvent@NetBrowser@@QEAAH_JPEAX@Z 000000018000f8d0 f   NetClass.obj
 0001:0000ea80       ?ProcessKey@NetBrowser@@QEAAHPEBU_INPUT_RECORD@@@Z 000000018000fa80 f   NetClass.obj
 0001:0000ef90       ?Push@NetResourceList@@QEAAXAEAU_NETRESOURCEW@@@Z 000000018000ff90 f   NetClass.obj
 0001:0000f010       ?RemoveItems@NetBrowser@@AEAAXXZ 0000000180010010 f   NetClass.obj
 0001:0000f2f0       ?Replace@SimpleString@@QEAAAEAV1@_K0PEB_W0@Z 00000001800102f0 f i NetClass.obj
 0001:0000f4b0       ?SaveValue@PluginEditFieldBinding@@UEAAXPEAUFarDialogItem@@H@Z 00000001800104b0 f i NetClass.obj
 0001:0000f4f0       ?SetDirectory@NetBrowser@@QEAAHPEB_W_K@Z 00000001800104f0 f   NetClass.obj
 0001:0000f7d0       ?SetOpenFromCommandLine@NetBrowser@@QEAAXPEA_W@Z 00000001800107d0 f   NetClass.obj
 0001:0000f7e0       ?SetOpenFromFilePanel@NetBrowser@@QEAAHPEA_W@Z 00000001800107e0 f   NetClass.obj
 0001:0000f860       ExitFARW                   0000000180010860 f   NetClass.obj
 0001:0000f8c0       ?DlgCreateFolder@@YAHPEA_WH@Z 00000001800108c0 f   NetCommon.obj
 0001:0000f920       ConfigureW                 0000000180010920 f   NetCommon.obj
 0001:0000f930       SetStartupInfoW            0000000180010930 f   NetCommon.obj
 0001:0000fde0       ?CheckFavoriteItem@@YAHQEAU_NETRESOURCEW@@@Z 0000000180010de0 f   NetFavorites.obj
 0001:0000fe10       ?GetFavorites@@YAHPEAU_NETRESOURCEW@@PEAVNetResourceList@@@Z 0000000180010e10 f   NetFavorites.obj
 0001:0000fef0       ?GetFavoritesParent@@YAHAEAU_NETRESOURCEW@@PEAU1@@Z 0000000180010ef0 f   NetFavorites.obj
 0001:0000ffc0       ??0TSaveScreen@@QEAA@XZ    0000000180010fc0 f   NetMix.obj
 0001:00010050       ??1TSaveScreen@@QEAA@XZ    0000000180011050 f   NetMix.obj
 0001:00010080       ?GetMsg@@YAPEB_WH@Z        0000000180011080 f   NetMix.obj
 0001:00010091       WNetAddConnection2W        0000000180011091 f   mpr:MPR.dll
 0001:00010097       WNetCancelConnection2W     0000000180011097 f   mpr:MPR.dll
 0001:0001009d       WNetOpenEnumW              000000018001109d f   mpr:MPR.dll
 0001:000100a3       WNetEnumResourceW          00000001800110a3 f   mpr:MPR.dll
 0001:000100a9       WNetCloseEnum              00000001800110a9 f   mpr:MPR.dll
 0001:000100af       WNetGetResourceParentW     00000001800110af f   mpr:MPR.dll
 0001:000100b5       WNetGetResourceInformationW 00000001800110b5 f   mpr:MPR.dll
 0001:000100bb       NetShareEnum               00000001800110bb f   Netapi32:NETAPI32.dll
 0001:000100c1       NetApiBufferFree           00000001800110c1 f   Netapi32:NETAPI32.dll
 0001:000100c8       ??2@YAPEAX_K@Z             00000001800110c8 f   LIBCMT:new_scalar.obj
 0001:00010104       ??3@YAXPEAX_K@Z            0000000180011104 f   LIBCMT:delete_scalar_size.obj
 0001:00010104       ??_V@YAXPEAX@Z             0000000180011104 f   LIBCMT:delete_array.obj
 0001:0001010c       ??_U@YAPEAX_K@Z            000000018001110c f   LIBCMT:new_array.obj
 0001:00010434       _DllMainCRTStartup         0000000180011434 f   LIBCMT:dll_dllmain.obj
 0001:00010474       ??0bad_alloc@std@@QEAA@AEBV01@@Z 0000000180011474 f i LIBCMT:throw_bad_alloc.obj
 0001:000104b4       ??0bad_alloc@std@@QEAA@XZ  00000001800114b4 f i LIBCMT:throw_bad_alloc.obj
 0001:000104d4       ??0bad_array_new_length@std@@QEAA@AEBV01@@Z 00000001800114d4 f i LIBCMT:throw_bad_alloc.obj
 0001:00010514       ??0bad_array_new_length@std@@QEAA@XZ 0000000180011514 f i LIBCMT:throw_bad_alloc.obj
 0001:00010534       ??0exception@std@@QEAA@AEBV01@@Z 0000000180011534 f i LIBCMT:throw_bad_alloc.obj
 0001:0001056c       ??1bad_alloc@std@@UEAA@XZ  000000018001156c f i LIBCMT:throw_bad_alloc.obj
 0001:0001056c       ??1bad_array_new_length@std@@UEAA@XZ 000000018001156c f i LIBCMT:throw_bad_alloc.obj
 0001:00010580       ??_Ebad_array_new_length@std@@UEAAPEAXI@Z 0000000180011580 f i LIBCMT:throw_bad_alloc.obj
 0001:00010580       ??_Gbad_alloc@std@@UEAAPEAXI@Z 0000000180011580 f i LIBCMT:throw_bad_alloc.obj
 0001:00010580       ??_Eexception@std@@UEAAPEAXI@Z 0000000180011580 f i LIBCMT:throw_bad_alloc.obj
 0001:00010580       ??_Gbad_array_new_length@std@@UEAAPEAXI@Z 0000000180011580 f i LIBCMT:throw_bad_alloc.obj
 0001:00010580       ??_Gexception@std@@UEAAPEAXI@Z 0000000180011580 f i LIBCMT:throw_bad_alloc.obj
 0001:00010580       ??_Ebad_alloc@std@@UEAAPEAXI@Z 0000000180011580 f i LIBCMT:throw_bad_alloc.obj
 0001:000105c4       ?__scrt_throw_std_bad_alloc@@YAXXZ 00000001800115c4 f   LIBCMT:throw_bad_alloc.obj
 0001:000105e4       ?__scrt_throw_std_bad_array_new_length@@YAXXZ 00000001800115e4 f   LIBCMT:throw_bad_alloc.obj
 0001:00010604       ?what@exception@std@@UEBAPEBDXZ 0000000180011604 f i LIBCMT:throw_bad_alloc.obj
 0001:00010618       ??3@YAXPEAX@Z              0000000180011618 f   LIBCMT:delete_scalar.obj
 0001:00010620       __security_init_cookie     0000000180011620 f   LIBCMT:gs_support.obj
 0001:000106d0       DllMain                    00000001800116d0 f   LIBCMT:dll_dllmain_stub.obj
 0001:000106d0       _get_startup_argv_mode     00000001800116d0 f   LIBCMT:argv_mode.obj
 0001:000106d8       ?__scrt_initialize_type_info@@YAXXZ 00000001800116d8 f   LIBCMT:tncleanup.obj
 0001:000106e8       ?__scrt_uninitialize_type_info@@YAXXZ 00000001800116e8 f   LIBCMT:tncleanup.obj
 0001:000106f4       __local_stdio_printf_options 00000001800116f4 f i LIBCMT:default_local_stdio_options.obj
 0001:000106fc       __local_stdio_scanf_options 00000001800116fc f i LIBCMT:default_local_stdio_options.obj
 0001:00010704       __scrt_initialize_default_local_stdio_options 0000000180011704 f   LIBCMT:default_local_stdio_options.obj
 0001:00010720       __scrt_acquire_startup_lock 0000000180011720 f   LIBCMT:utility.obj
 0001:0001075c       __scrt_dllmain_after_initialize_c 000000018001175c f   LIBCMT:utility.obj
 0001:00010790       __scrt_dllmain_before_initialize_c 0000000180011790 f   LIBCMT:utility.obj
 0001:000107a8       __scrt_dllmain_crt_thread_attach 00000001800117a8 f   LIBCMT:utility.obj
 0001:000107d0       __scrt_dllmain_crt_thread_detach 00000001800117d0 f   LIBCMT:utility.obj
 0001:000107e8       __scrt_dllmain_exception_filter 00000001800117e8 f   LIBCMT:utility.obj
 0001:00010848       __scrt_dllmain_uninitialize_c 0000000180011848 f   LIBCMT:utility.obj
 0001:00010878       __scrt_dllmain_uninitialize_critical 0000000180011878 f   LIBCMT:utility.obj
 0001:0001088c       __scrt_initialize_crt      000000018001188c f   LIBCMT:utility.obj
 0001:000108d8       __scrt_initialize_onexit_tables 00000001800118d8 f   LIBCMT:utility.obj
 0001:000109b4       __scrt_is_nonwritable_in_current_image 00000001800119b4 f   LIBCMT:utility.obj
 0001:00010a50       __scrt_release_startup_lock 0000000180011a50 f   LIBCMT:utility.obj
 0001:00010a74       __scrt_uninitialize_crt    0000000180011a74 f   LIBCMT:utility.obj
 0001:00010aa0       __scrt_get_dyn_tls_init_callback 0000000180011aa0 f   LIBCMT:dyn_tls_init.obj
 0001:00010aa8       __crt_debugger_hook        0000000180011aa8 f   LIBCMT:utility_desktop.obj
 0001:00010ab0       __scrt_fastfail            0000000180011ab0 f   LIBCMT:utility_desktop.obj
 0001:00010bfc       _RTC_Initialize            0000000180011bfc f   LIBCMT:_initsect_.obj
 0001:00010c38       _RTC_Terminate             0000000180011c38 f   LIBCMT:_initsect_.obj
 0001:00010c74       ??_Gtype_info@@UEAAPEAXI@Z 0000000180011c74 f i LIBCMT:std_type_info_static.obj
 0001:00010c74       ??_Etype_info@@UEAAPEAXI@Z 0000000180011c74 f i LIBCMT:std_type_info_static.obj
 0001:00010ca0       __isa_available_init       0000000180011ca0 f   LIBCMT:_cpu_disp_.obj
 0001:00010e5c       __scrt_is_ucrt_dll_in_use  0000000180011e5c f   LIBCMT:ucrt_detection.obj
 0001:00010e70       wcschr                     0000000180011e70 f   libvcruntime:wcschr.obj
 0001:00010f20       memset                     0000000180011f20 f   libvcruntime:memset.obj
 0001:000110d0       wcsstr                     00000001800120d0 f   libvcruntime:wcsstr.obj
 0001:00011300       memmove                    0000000180012300 f   libvcruntime:memcpy.obj
 0001:00011300       memcpy                     0000000180012300 f   libvcruntime:memcpy.obj
 0001:00011748       __C_specific_handler       0000000180012748 f   libvcruntime:_riscchandler_.obj
 0001:00011954       __std_exception_copy       0000000180012954 f   libvcruntime:std_exception.obj
 0001:000119e4       __std_exception_destroy    00000001800129e4 f   libvcruntime:std_exception.obj
 0001:00011a0c       _CxxThrowException         0000000180012a0c f   libvcruntime:throw.obj
 0001:00011acc       __std_type_info_destroy_list 0000000180012acc f   libvcruntime:std_type_info.obj
 0001:00011af8       __vcrt_initialize          0000000180012af8 f   libvcruntime:initialization.obj
 0001:00011b2c       __vcrt_thread_attach       0000000180012b2c f   libvcruntime:initialization.obj
 0001:00011b40       __vcrt_thread_detach       0000000180012b40 f   libvcruntime:initialization.obj
 0001:00011b54       __vcrt_uninitialize        0000000180012b54 f   libvcruntime:initialization.obj
 0001:00011b74       __vcrt_uninitialize_critical 0000000180012b74 f   libvcruntime:initialization.obj
 0001:00011ba0       _local_unwind              0000000180012ba0 f   libvcruntime:_jmpuwind_.obj
 0001:00011bd0       _NLG_Notify                0000000180012bd0 f   libvcruntime:_jmpuwind_.obj
 0001:00011bf0       __NLG_Dispatch2            0000000180012bf0 f   libvcruntime:_jmpuwind_.obj
 0001:00011c00       __NLG_Return2              0000000180012c00 f   libvcruntime:_jmpuwind_.obj
 0001:00011c04       __except_validate_context_record 0000000180012c04 f   libvcruntime:jbcxrval.obj
 0001:00011c3c       __vcrt_freefls             0000000180012c3c f   libvcruntime:per_thread_data.obj
 0001:00011c5c       __vcrt_freeptd             0000000180012c5c f   libvcruntime:per_thread_data.obj
 0001:00011cac       __vcrt_getptd_noexit       0000000180012cac f   libvcruntime:per_thread_data.obj
 0001:00011d64       __vcrt_initialize_ptd      0000000180012d64 f   libvcruntime:per_thread_data.obj
 0001:00011db4       __vcrt_uninitialize_ptd    0000000180012db4 f   libvcruntime:per_thread_data.obj
 0001:00011dd8       __vcrt_initialize_locks    0000000180012dd8 f   libvcruntime:locks.obj
 0001:00011e20       __vcrt_uninitialize_locks  0000000180012e20 f   libvcruntime:locks.obj
 0001:00012030       __vcrt_FlsAlloc            0000000180013030 f   libvcruntime:winapi_downlevel.obj
 0001:00012078       __vcrt_FlsFree             0000000180013078 f   libvcruntime:winapi_downlevel.obj
 0001:000120c0       __vcrt_FlsGetValue         00000001800130c0 f   libvcruntime:winapi_downlevel.obj
 0001:00012108       __vcrt_FlsSetValue         0000000180013108 f   libvcruntime:winapi_downlevel.obj
 0001:0001215c       __vcrt_InitializeCriticalSectionEx 000000018001315c f   libvcruntime:winapi_downlevel.obj
 0001:000121c0       __vcrt_initialize_winapi_thunks 00000001800131c0 f   libvcruntime:winapi_downlevel.obj
 0001:000121f0       __vcrt_uninitialize_winapi_thunks 00000001800131f0 f   libvcruntime:winapi_downlevel.obj
 0001:00012230       __vcrt_initialize_pure_virtual_call_handler 0000000180013230 f   libvcruntime:purevirt_data.obj
 0001:00012250       _CallSettingFrame          0000000180013250 f   libvcruntime:handlers.obj
 0001:00012290       __DestructExceptionObject  0000000180013290 f   libvcruntime:ehhelpers.obj
 0001:00012304       ?_CallMemberFunction0@@YAXQEAX0@Z 0000000180013304 f i libvcruntime:ehhelpers.obj
 0001:00012308       wcsncmp                    0000000180013308 f   libucrt:wcsncmp.obj
 0001:00012334       free                       0000000180013334 f   libucrt:free.obj
 0001:00012348       malloc                     0000000180013348 f   libucrt:malloc.obj
 0001:00012350       realloc                    0000000180013350 f   libucrt:realloc.obj
 0001:00012358       __acrt_initialize_new_handler 0000000180013358 f   libucrt:new_handler.obj
 0001:00012360       _callnewh                  0000000180013360 f   libucrt:new_handler.obj
 0001:00012390       _query_new_handler         0000000180013390 f   libucrt:new_handler.obj
 0001:000123c4       _initterm                  00000001800133c4 f   libucrt:initterm.obj
 0001:00012428       _initterm_e                0000000180013428 f   libucrt:initterm.obj
 0001:00012468       _seh_filter_dll            0000000180013468 f   libucrt:exception_filter.obj
 0001:0001247c       _seh_filter_exe            000000018001347c f   libucrt:exception_filter.obj
 0001:00012888       __acrt_initialize_thread_local_exit_callback 0000000180013888 f   libucrt:exit.obj
 0001:00012890       _cexit                     0000000180013890 f   libucrt:exit.obj
 0001:000128a0       _exit                      00000001800138a0 f   libucrt:exit.obj
 0001:000128ac       _is_c_termination_complete 00000001800138ac f   libucrt:exit.obj
 0001:00012a70       __acrt_allocate_buffer_for_argv 0000000180013a70 f   libucrt:argv_parsing.obj
 0001:00012ad0       _configure_narrow_argv     0000000180013ad0 f   libucrt:argv_parsing.obj
 0001:00012e4c       __dcrt_uninitialize_environments_nolock 0000000180013e4c f   libucrt:environment_initialization.obj
 0001:00012e84       _initialize_narrow_environment 0000000180013e84 f   libucrt:environment_initialization.obj
 0001:00013014       _execute_onexit_table      0000000180014014 f   libucrt:onexit.obj
 0001:00013050       _initialize_onexit_table   0000000180014050 f   libucrt:onexit.obj
 0001:000130c8       __acrt_uninitialize_command_line 00000001800140c8 f   libucrt:argv_data.obj
 0001:000131d4       __acrt_initialize          00000001800141d4 f   libucrt:initialization.obj
 0001:000131e8       __acrt_thread_attach       00000001800141e8 f   libucrt:initialization.obj
 0001:000131fc       __acrt_thread_detach       00000001800141fc f   libucrt:initialization.obj
 0001:0001320c       __acrt_uninitialize        000000018001420c f   libucrt:initialization.obj
 0001:00013244       __acrt_uninitialize_critical 0000000180014244 f   libucrt:initialization.obj
 0001:00013254       terminate                  0000000180014254 f   libucrt:terminate.obj
 0001:00013274       _wcsdup                    0000000180014274 f   libucrt:wcsdup.obj
 0001:00013274       wcsdup                     0000000180014274 f   libucrt:wcsdup.obj
 0001:000132f8       strcpy_s                   00000001800142f8 f   libucrt:strcpy_s.obj
 0001:00013358       ??0_LocaleUpdate@@QEAA@QEAU__crt_locale_pointers@@@Z 0000000180014358 f i libucrt:output.obj
 0001:00013400       strncmp                    0000000180014400 f   libucrt:strncmp.obj
 0001:00013480       abort                      0000000180014480 f   libucrt:abort.obj
 0001:000134d8       calloc                     00000001800144d8 f   libucrt:calloc.obj
 0001:000134e0       _free_base                 00000001800144e0 f   libucrt:free_base.obj
 0001:00013520       _malloc_base               0000000180014520 f   libucrt:malloc_base.obj
 0001:00013580       _realloc_base              0000000180014580 f   libucrt:realloc_base.obj
 0001:000135fc       __acrt_initialize_locks    00000001800145fc f   libucrt:locks.obj
 0001:00013644       __acrt_lock                0000000180014644 f   libucrt:locks.obj
 0001:00013660       __acrt_uninitialize_locks  0000000180014660 f   libucrt:locks.obj
 0001:00013698       __acrt_unlock              0000000180014698 f   libucrt:locks.obj
 0001:00013a2c       __acrt_freeptd             0000000180014a2c f   libucrt:per_thread_data.obj
 0001:00013a70       __acrt_getptd              0000000180014a70 f   libucrt:per_thread_data.obj
 0001:00013b3c       __acrt_getptd_head         0000000180014b3c f   libucrt:per_thread_data.obj
 0001:00013be4       __acrt_getptd_noexit       0000000180014be4 f   libucrt:per_thread_data.obj
 0001:00013cb4       __acrt_initialize_ptd      0000000180014cb4 f   libucrt:per_thread_data.obj
 0001:00013cf0       __acrt_uninitialize_ptd    0000000180014cf0 f   libucrt:per_thread_data.obj
 0001:00013d14       __acrt_get_process_end_policy 0000000180014d14 f   libucrt:win_policies.obj
 0001:00013d50       __acrt_call_reportfault    0000000180014d50 f   libucrt:invalid_parameter.obj
 0001:00013eac       __acrt_initialize_invalid_parameter_handler 0000000180014eac f   libucrt:invalid_parameter.obj
 0001:00013eb4       _invalid_parameter         0000000180014eb4 f   libucrt:invalid_parameter.obj
 0001:00013f64       _invalid_parameter_noinfo  0000000180014f64 f   libucrt:invalid_parameter.obj
 0001:00013f84       _invoke_watson             0000000180014f84 f   libucrt:invalid_parameter.obj
 0001:00013fcc       __acrt_errno_from_os_error 0000000180014fcc f   libucrt:errno.obj
 0001:00014014       __acrt_errno_map_os_error  0000000180015014 f   libucrt:errno.obj
 0001:00014064       __doserrno                 0000000180015064 f   libucrt:errno.obj
 0001:00014084       _errno                     0000000180015084 f   libucrt:errno.obj
 0001:000140a4       _calloc_base               00000001800150a4 f   libucrt:calloc_base.obj
 0001:00014680       __acrt_expand_narrow_argv_wildcards 0000000180015680 f   libucrt:argv_wildcards.obj
 0001:00014dc8       __acrt_initialize_multibyte 0000000180015dc8 f   libucrt:mbctype.obj
 0001:00014e28       __acrt_update_thread_multibyte_data 0000000180015e28 f   libucrt:mbctype.obj
 0001:00014e44       _setmbcp_nolock            0000000180015e44 f   libucrt:mbctype.obj
 0001:0001517c       _ismbblead                 000000018001617c f   libucrt:ismbbyte.obj
 0001:00015190       __acrt_initialize_command_line 0000000180016190 f   libucrt:argv_data.obj
 0001:000151b8       wcscpy_s                   00000001800161b8 f   libucrt:wcscpy_s.obj
 0001:00015220       __dcrt_get_narrow_environment_from_os 0000000180016220 f   libucrt:get_environment_from_os.obj
 0001:00015324       _recalloc                  0000000180016324 f   libucrt:recalloc.obj
 0001:0001532c       _recalloc_base             000000018001632c f   libucrt:recalloc.obj
 0001:0001559c       __acrt_AppPolicyGetProcessTerminationMethodInternal 000000018001659c f   libucrt:winapi_thunks.obj
 0001:000155ec       __acrt_FlsAlloc            00000001800165ec f   libucrt:winapi_thunks.obj
 0001:00015634       __acrt_FlsFree             0000000180016634 f   libucrt:winapi_thunks.obj
 0001:0001567c       __acrt_FlsGetValue         000000018001667c f   libucrt:winapi_thunks.obj
 0001:000156c4       __acrt_FlsSetValue         00000001800166c4 f   libucrt:winapi_thunks.obj
 0001:00015718       __acrt_InitializeCriticalSectionEx 0000000180016718 f   libucrt:winapi_thunks.obj
 0001:0001577c       __acrt_LCMapStringEx       000000018001677c f   libucrt:winapi_thunks.obj
 0001:00015858       __acrt_LocaleNameToLCID    0000000180016858 f   libucrt:winapi_thunks.obj
 0001:000158a8       __acrt_initialize_winapi_thunks 00000001800168a8 f   libucrt:winapi_thunks.obj
 0001:000158f0       __acrt_uninitialize_winapi_thunks 00000001800168f0 f   libucrt:winapi_thunks.obj
 0001:00015934       __acrt_initialize_heap     0000000180016934 f   libucrt:heap_handle.obj
 0001:00015950       __acrt_uninitialize_heap   0000000180016950 f   libucrt:heap_handle.obj
 0001:00015b44       __acrt_initialize_lowio    0000000180016b44 f   libucrt:ioinit.obj
 0001:00015b80       __acrt_uninitialize_lowio  0000000180016b80 f   libucrt:ioinit.obj
 0001:00015bc0       __acrt_execute_initializers 0000000180016bc0 f   libucrt:shared_initialization.obj
 0001:00015c40       __acrt_execute_uninitializers 0000000180016c40 f   libucrt:shared_initialization.obj
 0001:00015cc4       __acrt_get_sigabrt_handler 0000000180016cc4 f   libucrt:signal.obj
 0001:00015cf4       __acrt_initialize_signal_handlers 0000000180016cf4 f   libucrt:signal.obj
 0001:00015d14       raise                      0000000180016d14 f   libucrt:signal.obj
 0001:00015f88       __acrt_has_user_matherr    0000000180016f88 f   libucrt:matherr.obj
 0001:00015fa8       __acrt_initialize_user_matherr 0000000180016fa8 f   libucrt:matherr.obj
 0001:00015fb0       __acrt_invoke_user_matherr 0000000180016fb0 f   libucrt:matherr.obj
 0001:000161c4       __acrt_stdio_flush_nolock  00000001800171c4 f   libucrt:fflush.obj
 0001:00016240       _fflush_nolock             0000000180017240 f   libucrt:fflush.obj
 0001:0001628c       _flushall                  000000018001728c f   libucrt:fflush.obj
 0001:00016294       __acrt_initialize_stdio    0000000180017294 f   libucrt:_file.obj
 0001:000163b4       __acrt_uninitialize_stdio  00000001800173b4 f   libucrt:_file.obj
 0001:00016410       _lock_file                 0000000180017410 f   libucrt:_file.obj
 0001:0001641c       _unlock_file               000000018001741c f   libucrt:_file.obj
 0001:00016428       _mbtowc_l                  0000000180017428 f   libucrt:mbtowc.obj
 0001:00016570       mbtowc                     0000000180017570 f   libucrt:mbtowc.obj
 0001:00016578       __acrt_update_locale_info  0000000180017578 f   libucrt:locale_update.obj
 0001:000165ac       __acrt_update_multibyte_info 00000001800175ac f   libucrt:locale_update.obj
 0001:000165e0       _fileno                    00000001800175e0 f   libucrt:fileno.obj
 0001:00016678       __acrt_set_locale_changed  0000000180017678 f   libucrt:wsetlocale.obj
 0001:00016684       __acrt_uninitialize_locale 0000000180017684 f   libucrt:wsetlocale.obj
 0001:000166b4       __pctype_func              00000001800176b4 f   libucrt:ctype.obj
 0001:000166e4       _query_new_mode            00000001800176e4 f   libucrt:new_mode.obj
 0001:000166ec       __acrt_add_locale_ref      00000001800176ec f   libucrt:locale_refcounting.obj
 0001:00016778       __acrt_free_locale         0000000180017778 f   libucrt:locale_refcounting.obj
 0001:000168f0       __acrt_locale_add_lc_time_reference 00000001800178f0 f   libucrt:locale_refcounting.obj
 0001:00016918       __acrt_locale_free_lc_time_if_unreferenced 0000000180017918 f   libucrt:locale_refcounting.obj
 0001:00016950       __acrt_locale_release_lc_time_reference 0000000180017950 f   libucrt:locale_refcounting.obj
 0001:00016978       __acrt_release_locale_ref  0000000180017978 f   libucrt:locale_refcounting.obj
 0001:00016a20       __acrt_update_thread_locale_data 0000000180017a20 f   libucrt:locale_refcounting.obj
 0001:00016a90       _updatetlocinfoEx_nolock   0000000180017a90 f   libucrt:locale_refcounting.obj
 0001:00016b00       qsort                      0000000180017b00 f   libucrt:qsort.obj
 0001:00016eb0       strncpy_s                  0000000180017eb0 f   libucrt:strncpy_s.obj
 0001:00017030       strpbrk                    0000000180018030 f   libucrt:strpbrk.obj
 0001:00017410       _mbsdec                    0000000180018410 f   libucrt:mbsdec.obj
 0001:00017418       _mbsdec_l                  0000000180018418 f   libucrt:mbsdec.obj
 0001:000174c0       __acrt_GetStringTypeA      00000001800184c0 f   libucrt:getstringtypea.obj
 0001:00017968       __acrt_LCMapStringA        0000000180018968 f   libucrt:lcmapstringa.obj
 0001:00017a00       _msize                     0000000180018a00 f   libucrt:msize.obj
 0001:00017a08       _msize_base                0000000180018a08 f   libucrt:msize.obj
 0001:00017b10       __acrt_DownlevelLocaleNameToLCID 0000000180018b10 f   libucrt:lcidtoname_downlevel.obj
 0001:00017b44       __acrt_lowio_create_handle_array 0000000180018b44 f   libucrt:osfinfo.obj
 0001:00017bdc       __acrt_lowio_destroy_handle_array 0000000180018bdc f   libucrt:osfinfo.obj
 0001:00017c2c       __acrt_lowio_ensure_fh_exists 0000000180018c2c f   libucrt:osfinfo.obj
 0001:00017cd4       __acrt_lowio_lock_fh       0000000180018cd4 f   libucrt:osfinfo.obj
 0001:00017cf8       __acrt_lowio_unlock_fh     0000000180018cf8 f   libucrt:osfinfo.obj
 0001:00017d1c       _free_osfhnd               0000000180018d1c f   libucrt:osfinfo.obj
 0001:00017dd8       _get_osfhandle             0000000180018dd8 f   libucrt:osfinfo.obj
 0001:00017edc       _commit                    0000000180018edc f   libucrt:commit.obj
 0001:00018528       _write                     0000000180019528 f   libucrt:write.obj
 0001:00018614       _write_nolock              0000000180019614 f   libucrt:write.obj
 0001:00018958       _fcloseall                 0000000180019958 f   libucrt:closeall.obj
 0001:00018a0c       __acrt_stdio_free_buffer_nolock 0000000180019a0c f   libucrt:_freebuf.obj
 0001:00018a4c       _isatty                    0000000180019a4c f   libucrt:isatty.obj
 0001:00018aac       _isleadbyte_l              0000000180019aac f i libucrt:_wctype.obj
 0001:00018aec       __acrt_MultiByteToWideChar 0000000180019aec f   libucrt:multibytetowidechar.obj
 0001:00018af4       __acrt_locale_free_monetary 0000000180019af4 f   libucrt:initmon.obj
 0001:00018c00       __acrt_locale_free_numeric 0000000180019c00 f   libucrt:initnum.obj
 0001:00018cc0       __acrt_locale_free_time    0000000180019cc0 f   libucrt:inittime.obj
 0001:00018dc8       __strncnt                  0000000180019dc8 f   libucrt:strncnt.obj
 0001:00018de0       _query_app_type            0000000180019de0 f   libucrt:report_runtime_error.obj
 0001:00018e84       _lseeki64_nolock           0000000180019e84 f   libucrt:lseek.obj
 0001:00018e8c       _putwch_nolock             0000000180019e8c f   libucrt:putwch.obj
 0001:00018ec8       _fclose_nolock             0000000180019ec8 f   libucrt:fclose.obj
 0001:00018f4c       fclose                     0000000180019f4c f   libucrt:fclose.obj
 0001:00018fb0       log10                      0000000180019fb0 f   libucrt:log10.obj
 0001:0001955c       __dcrt_lowio_ensure_console_output_initialized 000000018001a55c f   libucrt:initcon.obj
 0001:000195b0       __dcrt_terminate_console_output 000000018001a5b0 f   libucrt:initcon.obj
 0001:000195cc       __dcrt_write_console_w     000000018001a5cc f   libucrt:initcon.obj
 0001:00019700       _close                     000000018001a700 f   libucrt:close.obj
 0001:000197a4       _close_nolock              000000018001a7a4 f   libucrt:close.obj
 0001:00019860       ?__acrt_stdio_free_stream@@YAXV__crt_stdio_stream@@@Z 000000018001a860 f   libucrt:stream.obj
 0001:000199a0       _handle_error              000000018001a9a0 f   libucrt:libm_error.obj
 0001:00019ad0       __acrt_initialize_fma3     000000018001aad0 f   libucrt:fma3_available.obj
 0001:00019b40       _log10_special             000000018001ab40 f   libucrt:log_special.obj
 0001:00019c10       _get_fpsr                  000000018001ac10 f   libucrt:fpsr.obj
 0001:00019c20       _set_fpsr                  000000018001ac20 f   libucrt:fpsr.obj
 0001:00019c2a       _fclrf                     000000018001ac2a f   libucrt:fpsr.obj
 0001:00019c3e       _frnd                      000000018001ac3e f   libucrt:fpsr.obj
 0001:00019c60       _raise_exc                 000000018001ac60 f   libucrt:fpexcept.obj
 0001:00019c88       _raise_exc_ex              000000018001ac88 f   libucrt:fpexcept.obj
 0001:00019f90       _set_errno_from_matherr    000000018001af90 f   libucrt:fpexcept.obj
 0001:00019fc0       _clrfp                     000000018001afc0 f   libucrt:fpctrl.obj
 0001:00019fe0       _ctrlfp                    000000018001afe0 f   libucrt:fpctrl.obj
 0001:0001a05c       _set_statfp                000000018001b05c f   libucrt:fpctrl.obj
 0001:0001a07c       _statfp                    000000018001b07c f   libucrt:fpctrl.obj
 0001:0001a08d       IsProcessorFeaturePresent  000000018001b08d f   kernel32:KERNEL32.dll
 0001:0001a093       RtlUnwindEx                000000018001b093 f   kernel32:KERNEL32.dll
 0001:0001a0a0       _FindPESection             000000018001b0a0 f   LIBCMT:pesect.obj
 0001:0001a0f0       _IsNonwritableInCurrentImage 000000018001b0f0 f   LIBCMT:pesect.obj
 0001:0001a140       _ValidateImageBase         000000018001b140 f   LIBCMT:pesect.obj
 0001:0001a170       __GSHandlerCheck           000000018001b170 f   LIBCMT:_gshandler_.obj
 0001:0001a190       __GSHandlerCheckCommon     000000018001b190 f   LIBCMT:_gshandler_.obj
 0001:0001a200       __security_check_cookie    000000018001b200 f   LIBCMT:_amdsecgs_.obj
 0001:0001a224       __raise_securityfailure    000000018001b224 f   LIBCMT:gs_report.obj
 0001:0001a258       __report_gsfailure         000000018001b258 f   LIBCMT:gs_report.obj
 0001:0001a32c       __report_rangecheckfailure 000000018001b32c f   LIBCMT:gs_report.obj
 0001:0001a340       __report_securityfailure   000000018001b340 f   LIBCMT:gs_report.obj
 0001:0001a4d0       memcmp                     000000018001b4d0 f   libvcruntime:memcmp.obj
 0001:0001a5b0       _guard_dispatch_icall_nop  000000018001b5b0 f   LIBCMT:_guard_dispatch_.obj
 0001:0001bbc8       _TI2?AVbad_alloc@std@@     000000018001cbc8     LIBCMT:throw_bad_alloc.obj
 0001:0001bbe8       _CTA2?AVbad_alloc@std@@    000000018001cbe8     LIBCMT:throw_bad_alloc.obj
 0001:0001bc00       _CT??_R0?AVbad_alloc@std@@@8??0bad_alloc@std@@QEAA@AEBV01@@Z24 000000018001cc00     LIBCMT:throw_bad_alloc.obj
 0001:0001bc28       _CT??_R0?AVexception@std@@@8??0exception@std@@QEAA@AEBV01@@Z24 000000018001cc28     LIBCMT:throw_bad_alloc.obj
 0001:0001bc50       _TI3?AVbad_array_new_length@std@@ 000000018001cc50     LIBCMT:throw_bad_alloc.obj
 0001:0001bc70       _CTA3?AVbad_array_new_length@std@@ 000000018001cc70     LIBCMT:throw_bad_alloc.obj
 0001:0001bc90       _CT??_R0?AVbad_array_new_length@std@@@8??0bad_array_new_length@std@@QEAA@AEBV01@@Z24 000000018001cc90     LIBCMT:throw_bad_alloc.obj
 0002:00000000       ?StrAddToDisksMenu@@3PEB_WEB 000000018001d000     NetCfg.obj
 0002:00000008       ?StrAddToPluginsMenu@@3PEB_WEB 000000018001d008     NetCfg.obj
 0002:00000010       ?StrHelpNetBrowse@@3PEB_WEB 000000018001d010     NetCfg.obj
 0002:00000018       ?StrHiddenShares@@3PEB_WEB 000000018001d018     NetCfg.obj
 0002:00000020       ?StrShowPrinters@@3PEB_WEB 000000018001d020     NetCfg.obj
 0002:00000028       ?StrLocalNetwork@@3PEB_WEB 000000018001d028     NetCfg.obj
 0002:00000030       ?StrDisconnectMode@@3PEB_WEB 000000018001d030     NetCfg.obj
 0002:00000038       ?StrRemoveConnection@@3PEB_WEB 000000018001d038     NetCfg.obj
 0002:00000040       ?StrHiddenSharesAsHidden@@3PEB_WEB 000000018001d040     NetCfg.obj
 0002:00000048       ?StrFullPathShares@@3PEB_WEB 000000018001d048     NetCfg.obj
 0002:00000050       ?StrFavoritesFlags@@3PEB_WEB 000000018001d050     NetCfg.obj
 0002:00000058       ?StrNoRootDoublePoint@@3PEB_WEB 000000018001d058     NetCfg.obj
 0002:00000060       ?StrNavigateToDomains@@3PEB_WEB 000000018001d060     NetCfg.obj
 0002:00000068       ?StrPanelMode@@3PEB_WEB    000000018001d068     NetCfg.obj
 0002:00000188       ?IsFirstRun@@3HA           000000018001d188     NetCommon.obj
 0002:00000190       ?szFavProv@@3PA_WA         000000018001d190     NetFavorites.obj
 0002:000001c0       ?g_szInvalidChars@@3PEB_WEB 000000018001d1c0     NetFavorites.obj
 0002:000001c8       __scrt_native_dllmain_reason 000000018001d1c8     LIBCMT:utility.obj
 0002:000001d0       __security_cookie          000000018001d1d0     LIBCMT:gs_cookie.obj
 0002:000001d8       __security_cookie_complement 000000018001d1d8     LIBCMT:gs_cookie.obj
 0002:000001e0       __isa_available            000000018001d1e0     LIBCMT:_cpu_disp_.obj
 0002:000001e4       __isa_enabled              000000018001d1e4     LIBCMT:_cpu_disp_.obj
 0002:000001e8       __memcpy_nt_iters          000000018001d1e8     LIBCMT:_cpu_disp_.obj
 0002:00000200       __abort_behavior           000000018001d200     libucrt:abort.obj
 0002:00000210       __acrt_initial_multibyte_data 000000018001d210     libucrt:mbctype.obj
 0002:00000750       __acrt_initial_locale_data 000000018001d750     libucrt:nlsdata.obj
 0002:000008a8       __acrt_initial_locale_pointers 000000018001d8a8     libucrt:nlsdata.obj
 0002:000008b8       __acrt_wide_c_locale_string 000000018001d8b8     libucrt:nlsdata.obj
 0002:000008c0       _iob                       000000018001d8c0     libucrt:_file.obj
 0002:000009c8       __globallocalestatus       000000018001d9c8     libucrt:glstatus.obj
 0002:000009d0       __acrt_lconv_c             000000018001d9d0     libucrt:localeconv.obj
 0002:00000a68       __acrt_lconv_static_decimal 000000018001da68     libucrt:localeconv.obj
 0002:00000a6c       __acrt_lconv_static_W_decimal 000000018001da6c     libucrt:localeconv.obj
 0002:00000a90       _fltused                   000000018001da90     LIBCMT:fltused.obj
 0002:00000aa0       ??_R0?AVbad_alloc@std@@@8  000000018001daa0     LIBCMT:throw_bad_alloc.obj
 0002:00000ac8       ??_R0?AVexception@std@@@8  000000018001dac8     LIBCMT:throw_bad_alloc.obj
 0002:00000af0       ??_R0?AVbad_array_new_length@std@@@8 000000018001daf0     LIBCMT:throw_bad_alloc.obj
 0002:00000b20       ??_R0?AVtype_info@@@8      000000018001db20     LIBCMT:std_type_info_static.obj
 0002:00000b50       ?CommonRootResources@@3PEAVNetResourceList@@EA 000000018001db50     NetClass.obj
 0002:00000b58       ?SavedCommonRootResources@@3HA 000000018001db58     NetClass.obj
 0002:00001930       ?Opt@@3UOptions@@A         000000018001e930     NetCommon.obj
 0002:00001960       ?Info@@3UPluginStartupInfo@@A 000000018001e960     NetCommon.obj
 0002:00001a70       ?FSF@@3UFarStandardFunctions@@A 000000018001ea70     NetCommon.obj
 0002:00001bf8       ?CommonCurResource@@3U_NETRESOURCEW@@A 000000018001ebf8     NetCommon.obj
 0002:00001c28       ?PCommonCurResource@@3PEAU_NETRESOURCEW@@EA 000000018001ec28     NetCommon.obj
 0002:00001c40       ?__type_info_root_node@@3U__type_info_node@@A 000000018001ec40     LIBCMT:tncleanup.obj
 0002:00001c50       ?_OptionsStorage@?1??__local_stdio_printf_options@@9@4_KA 000000018001ec50     LIBCMT:default_local_stdio_options.obj
 0002:00001c58       ?_OptionsStorage@?1??__local_stdio_scanf_options@@9@4_KA 000000018001ec58     LIBCMT:default_local_stdio_options.obj
 0002:00001c60       __scrt_current_native_startup_state 000000018001ec60     LIBCMT:utility.obj
 0002:00001c68       __scrt_native_startup_lock 000000018001ec68     LIBCMT:utility.obj
 0002:00001ca4       __scrt_debugger_hook_flag  000000018001eca4     LIBCMT:utility_desktop.obj
 0002:00001ca8       __favor                    000000018001eca8     LIBCMT:_cpu_disp_.obj
 0002:00001cb0       ?m_pGetParameter@UnDecorator@@0P6APEADJ@ZEA 000000018001ecb0     libvcruntime:undname.obj
 0002:00001cb8       ?m_CHPENameOffset@UnDecorator@@0KA 000000018001ecb8     libvcruntime:undname.obj
 0002:00001cbc       ?m_recursionLevel@UnDecorator@@0KA 000000018001ecbc     libvcruntime:undname.obj
 0002:00001cc0       ?pArgList@UnDecorator@@0PEAVReplicator@@EA 000000018001ecc0     libvcruntime:undname.obj
 0002:00001cc8       ?pZNameList@UnDecorator@@0PEAVReplicator@@EA 000000018001ecc8     libvcruntime:undname.obj
 0002:00001cd0       ?pTemplateArgList@UnDecorator@@0PEAVReplicator@@EA 000000018001ecd0     libvcruntime:undname.obj
 0002:00001cd8       ?gName@UnDecorator@@0PEBDEB 000000018001ecd8     libvcruntime:undname.obj
 0002:00001ce0       ?name@UnDecorator@@0PEBDEB 000000018001ece0     libvcruntime:undname.obj
 0002:00001ce8       ?disableFlags@UnDecorator@@0KA 000000018001ece8     libvcruntime:undname.obj
 0002:00001cec       ?fExplicitTemplateParams@UnDecorator@@0_NA 000000018001ecec     libvcruntime:undname.obj
 0002:00001ced       ?fGetTemplateArgumentList@UnDecorator@@0_NA 000000018001eced     libvcruntime:undname.obj
 0002:00001e08       __pPurecall                000000018001ee08     libvcruntime:purevirt_data.obj
 0002:00001e10       ?__WinRTOutOfMemoryExceptionCallback@@3P6APEAXXZEA 000000018001ee10     libvcruntime:ehhelpers.obj
 0002:00001e30       ?c_exit_complete@?1???R<lambda_6e4b09c48022b2350581041d5f6b0c4c>@@QEBA@XZ@4_NA 000000018001ee30     libucrt:exit.obj
 0002:00001f48       _environ_table             000000018001ef48     libucrt:environment_initialization.obj
 0002:00001f50       _wenviron_table            000000018001ef50     libucrt:environment_initialization.obj
 0002:00001f58       __dcrt_initial_wide_environment 000000018001ef58     libucrt:environment_initialization.obj
 0002:00001f60       __dcrt_initial_narrow_environment 000000018001ef60     libucrt:environment_initialization.obj
 0002:00001f68       __acrt_atexit_table        000000018001ef68     libucrt:onexit.obj
 0002:00001f80       __acrt_at_quick_exit_table 000000018001ef80     libucrt:onexit.obj
 0002:000021e0       __acrt_current_multibyte_data 000000018001f1e0     libucrt:mbctype.obj
 0002:000021e8       _mbctype                   000000018001f1e8     libucrt:mbctype.obj
 0002:000021f0       _mbcasemap                 000000018001f1f0     libucrt:mbctype.obj
 0002:00002200       __argc                     000000018001f200     libucrt:argv_data.obj
 0002:00002208       __argv                     000000018001f208     libucrt:argv_data.obj
 0002:00002210       __wargv                    000000018001f210     libucrt:argv_data.obj
 0002:00002218       _acmdln                    000000018001f218     libucrt:argv_data.obj
 0002:00002220       _wcmdln                    000000018001f220     libucrt:argv_data.obj
 0002:00002228       _pgmptr                    000000018001f228     libucrt:argv_data.obj
 0002:000023e0       __acrt_heap                000000018001f3e0     libucrt:heap_handle.obj
 0002:000023f0       __pioinfo                  000000018001f3f0     libucrt:ioinit.obj
 0002:000027f0       _nhandle                   000000018001f7f0     libucrt:ioinit.obj
 0002:00002820       __acrt_current_locale_data 000000018001f820     libucrt:nlsdata.obj
 0002:00002828       _nstream                   000000018001f828     libucrt:_file.obj
 0002:00002830       __piob                     000000018001f830     libucrt:_file.obj
 0002:00002838       __acrt_stdout_buffer       000000018001f838     libucrt:_sftbuf.obj
 0002:00002840       __acrt_stderr_buffer       000000018001f840     libucrt:_sftbuf.obj
 0002:00002848       __acrt_locale_changed_data 000000018001f848     libucrt:wsetlocale.obj
 0002:00002850       __acrt_lconv_static_null   000000018001f850     libucrt:localeconv.obj
 0002:00002854       __acrt_lconv_static_W_null 000000018001f854     libucrt:localeconv.obj
 0002:0000285c       __fma3_is_available        000000018001f85c     libucrt:fma3_available.obj
 0002:00002860       __use_fma3_lib             000000018001f860     libucrt:fma3_available.obj
 0002:00002de0       __scrt_ucrt_dll_is_in_use  000000018001fde0     <common>
 0002:00002de8       __dyn_tls_init_callback    000000018001fde8     <common>
 0004:00000000       __imp_RegCloseKey          0000000180022000     advapi32:ADVAPI32.dll
 0004:00000008       __imp_RegOpenKeyExW        0000000180022008     advapi32:ADVAPI32.dll
 0004:00000010       \177ADVAPI32_NULL_THUNK_DATA 0000000180022010     advapi32:ADVAPI32.dll
 0004:00000018       __imp_GetSystemDirectoryW  0000000180022018     kernel32:KERNEL32.dll
 0004:00000020       __imp_lstrcmpiW            0000000180022020     kernel32:KERNEL32.dll
 0004:00000028       __imp_lstrcpyW             0000000180022028     kernel32:KERNEL32.dll
 0004:00000030       __imp_lstrlenW             0000000180022030     kernel32:KERNEL32.dll
 0004:00000038       __imp_FindClose            0000000180022038     kernel32:KERNEL32.dll
 0004:00000040       __imp_FindFirstFileW       0000000180022040     kernel32:KERNEL32.dll
 0004:00000048       __imp_GetLogicalDrives     0000000180022048     kernel32:KERNEL32.dll
 0004:00000050       __imp_GetLastError         0000000180022050     kernel32:KERNEL32.dll
 0004:00000058       __imp_SetLastError         0000000180022058     kernel32:KERNEL32.dll
 0004:00000060       __imp_GetCurrentDirectoryW 0000000180022060     kernel32:KERNEL32.dll
 0004:00000068       __imp_LocalAlloc           0000000180022068     kernel32:KERNEL32.dll
 0004:00000070       __imp_LocalFree            0000000180022070     kernel32:KERNEL32.dll
 0004:00000078       __imp_lstrcmpW             0000000180022078     kernel32:KERNEL32.dll
 0004:00000080       __imp_lstrcpynW            0000000180022080     kernel32:KERNEL32.dll
 0004:00000088       __imp_lstrcatW             0000000180022088     kernel32:KERNEL32.dll
 0004:00000090       __imp_GetComputerNameW     0000000180022090     kernel32:KERNEL32.dll
 0004:00000098       __imp_CloseHandle          0000000180022098     kernel32:KERNEL32.dll
 0004:000000a0       __imp_CreateFileW          00000001800220a0     kernel32:KERNEL32.dll
 0004:000000a8       __imp_SetFilePointerEx     00000001800220a8     kernel32:KERNEL32.dll
 0004:000000b0       __imp_SetCurrentDirectoryW 00000001800220b0     kernel32:KERNEL32.dll
 0004:000000b8       __imp_GetModuleFileNameW   00000001800220b8     kernel32:KERNEL32.dll
 0004:000000c0       __imp_ExpandEnvironmentStringsW 00000001800220c0     kernel32:KERNEL32.dll
 0004:000000c8       __imp_GetConsoleMode       00000001800220c8     kernel32:KERNEL32.dll
 0004:000000d0       __imp_GetConsoleCP         00000001800220d0     kernel32:KERNEL32.dll
 0004:000000d8       __imp_WriteFile            00000001800220d8     kernel32:KERNEL32.dll
 0004:000000e0       __imp_FlushFileBuffers     00000001800220e0     kernel32:KERNEL32.dll
 0004:000000e8       __imp_SetStdHandle         00000001800220e8     kernel32:KERNEL32.dll
 0004:000000f0       __imp_HeapSize             00000001800220f0     kernel32:KERNEL32.dll
 0004:000000f8       __imp_GetStringTypeW       00000001800220f8     kernel32:KERNEL32.dll
 0004:00000100       __imp_GetFileType          0000000180022100     kernel32:KERNEL32.dll
 0004:00000108       __imp_GetStdHandle         0000000180022108     kernel32:KERNEL32.dll
 0004:00000110       __imp_GetProcessHeap       0000000180022110     kernel32:KERNEL32.dll
 0004:00000118       __imp_QueryPerformanceCounter 0000000180022118     kernel32:KERNEL32.dll
 0004:00000120       __imp_GetCurrentProcessId  0000000180022120     kernel32:KERNEL32.dll
 0004:00000128       __imp_GetCurrentThreadId   0000000180022128     kernel32:KERNEL32.dll
 0004:00000130       __imp_GetSystemTimeAsFileTime 0000000180022130     kernel32:KERNEL32.dll
 0004:00000138       __imp_InitializeSListHead  0000000180022138     kernel32:KERNEL32.dll
 0004:00000140       __imp_RtlCaptureContext    0000000180022140     kernel32:KERNEL32.dll
 0004:00000148       __imp_RtlLookupFunctionEntry 0000000180022148     kernel32:KERNEL32.dll
 0004:00000150       __imp_RtlVirtualUnwind     0000000180022150     kernel32:KERNEL32.dll
 0004:00000158       __imp_IsDebuggerPresent    0000000180022158     kernel32:KERNEL32.dll
 0004:00000160       __imp_UnhandledExceptionFilter 0000000180022160     kernel32:KERNEL32.dll
 0004:00000168       __imp_SetUnhandledExceptionFilter 0000000180022168     kernel32:KERNEL32.dll
 0004:00000170       __imp_GetStartupInfoW      0000000180022170     kernel32:KERNEL32.dll
 0004:00000178       __imp_IsProcessorFeaturePresent 0000000180022178     kernel32:KERNEL32.dll
 0004:00000180       __imp_GetModuleHandleW     0000000180022180     kernel32:KERNEL32.dll
 0004:00000188       __imp_RtlUnwindEx          0000000180022188     kernel32:KERNEL32.dll
 0004:00000190       __imp_RtlPcToFileHeader    0000000180022190     kernel32:KERNEL32.dll
 0004:00000198       __imp_RaiseException       0000000180022198     kernel32:KERNEL32.dll
 0004:000001a0       __imp_InterlockedFlushSList 00000001800221a0     kernel32:KERNEL32.dll
 0004:000001a8       __imp_EnterCriticalSection 00000001800221a8     kernel32:KERNEL32.dll
 0004:000001b0       __imp_LeaveCriticalSection 00000001800221b0     kernel32:KERNEL32.dll
 0004:000001b8       __imp_DeleteCriticalSection 00000001800221b8     kernel32:KERNEL32.dll
 0004:000001c0       __imp_InitializeCriticalSectionAndSpinCount 00000001800221c0     kernel32:KERNEL32.dll
 0004:000001c8       __imp_TlsAlloc             00000001800221c8     kernel32:KERNEL32.dll
 0004:000001d0       __imp_TlsGetValue          00000001800221d0     kernel32:KERNEL32.dll
 0004:000001d8       __imp_TlsSetValue          00000001800221d8     kernel32:KERNEL32.dll
 0004:000001e0       __imp_TlsFree              00000001800221e0     kernel32:KERNEL32.dll
 0004:000001e8       __imp_FreeLibrary          00000001800221e8     kernel32:KERNEL32.dll
 0004:000001f0       __imp_GetProcAddress       00000001800221f0     kernel32:KERNEL32.dll
 0004:000001f8       __imp_LoadLibraryExW       00000001800221f8     kernel32:KERNEL32.dll
 0004:00000200       __imp_GetCurrentProcess    0000000180022200     kernel32:KERNEL32.dll
 0004:00000208       __imp_ExitProcess          0000000180022208     kernel32:KERNEL32.dll
 0004:00000210       __imp_TerminateProcess     0000000180022210     kernel32:KERNEL32.dll
 0004:00000218       __imp_GetModuleHandleExW   0000000180022218     kernel32:KERNEL32.dll
 0004:00000220       __imp_GetModuleFileNameA   0000000180022220     kernel32:KERNEL32.dll
 0004:00000228       __imp_MultiByteToWideChar  0000000180022228     kernel32:KERNEL32.dll
 0004:00000230       __imp_WideCharToMultiByte  0000000180022230     kernel32:KERNEL32.dll
 0004:00000238       __imp_HeapFree             0000000180022238     kernel32:KERNEL32.dll
 0004:00000240       __imp_HeapAlloc            0000000180022240     kernel32:KERNEL32.dll
 0004:00000248       __imp_HeapReAlloc          0000000180022248     kernel32:KERNEL32.dll
 0004:00000250       __imp_FindFirstFileExA     0000000180022250     kernel32:KERNEL32.dll
 0004:00000258       __imp_FindNextFileA        0000000180022258     kernel32:KERNEL32.dll
 0004:00000260       __imp_IsValidCodePage      0000000180022260     kernel32:KERNEL32.dll
 0004:00000268       __imp_GetACP               0000000180022268     kernel32:KERNEL32.dll
 0004:00000270       __imp_GetOEMCP             0000000180022270     kernel32:KERNEL32.dll
 0004:00000278       __imp_GetCPInfo            0000000180022278     kernel32:KERNEL32.dll
 0004:00000280       __imp_GetCommandLineA      0000000180022280     kernel32:KERNEL32.dll
 0004:00000288       __imp_GetCommandLineW      0000000180022288     kernel32:KERNEL32.dll
 0004:00000290       __imp_GetEnvironmentStringsW 0000000180022290     kernel32:KERNEL32.dll
 0004:00000298       __imp_FreeEnvironmentStringsW 0000000180022298     kernel32:KERNEL32.dll
 0004:000002a0       __imp_LCMapStringW         00000001800222a0     kernel32:KERNEL32.dll
 0004:000002a8       __imp_WriteConsoleW        00000001800222a8     kernel32:KERNEL32.dll
 0004:000002b0       \177KERNEL32_NULL_THUNK_DATA 00000001800222b0     kernel32:KERNEL32.dll
 0004:000002b8       __imp_WNetAddConnection2W  00000001800222b8     mpr:MPR.dll
 0004:000002c0       __imp_WNetCancelConnection2W 00000001800222c0     mpr:MPR.dll
 0004:000002c8       __imp_WNetGetResourceInformationW 00000001800222c8     mpr:MPR.dll
 0004:000002d0       __imp_WNetGetResourceParentW 00000001800222d0     mpr:MPR.dll
 0004:000002d8       __imp_WNetCloseEnum        00000001800222d8     mpr:MPR.dll
 0004:000002e0       __imp_WNetEnumResourceW    00000001800222e0     mpr:MPR.dll
 0004:000002e8       __imp_WNetOpenEnumW        00000001800222e8     mpr:MPR.dll
 0004:000002f0       \177MPR_NULL_THUNK_DATA    00000001800222f0     mpr:MPR.dll
 0004:000002f8       __imp_NetApiBufferFree     00000001800222f8     Netapi32:NETAPI32.dll
 0004:00000300       __imp_NetShareEnum         0000000180022300     Netapi32:NETAPI32.dll
 0004:00000308       \177NETAPI32_NULL_THUNK_DATA 0000000180022308     Netapi32:NETAPI32.dll
 0004:00000310       __imp_CharUpperW           0000000180022310     user32:USER32.dll
 0004:00000318       \177USER32_NULL_THUNK_DATA 0000000180022318     user32:USER32.dll
 0004:00000320       __guard_check_icall_fptr   0000000180022320     LIBCMT:guard_support.obj
 0004:00000328       __guard_dispatch_icall_fptr 0000000180022328     LIBCMT:guard_support.obj
 0004:00000330       __IMPORT_DESCRIPTOR_KERNEL32 0000000180022330     kernel32:KERNEL32.dll
 0004:00000344       __IMPORT_DESCRIPTOR_USER32 0000000180022344     user32:USER32.dll
 0004:00000358       __IMPORT_DESCRIPTOR_ADVAPI32 0000000180022358     advapi32:ADVAPI32.dll
 0004:0000036c       __IMPORT_DESCRIPTOR_MPR    000000018002236c     mpr:MPR.dll
 0004:00000380       __IMPORT_DESCRIPTOR_NETAPI32 0000000180022380     Netapi32:NETAPI32.dll
 0004:00000394       __NULL_IMPORT_DESCRIPTOR   0000000180022394     kernel32:KERNEL32.dll

 entry point at        0001:00010434

 Static symbols

 0001:00000480       ?FarGuid@@3U_GUID@@B       0000000180001480     NetClass.obj
 0001:000007e0       ?ExceptionTemplate@?1??_CxxThrowException@@9@4UEHExceptionRecord@@B 00000001800017e0     libvcruntime:throw.obj
 0001:00000820       ?tokenTable@@3QBQEBDB      0000000180001820     libvcruntime:undname.obj
 0001:00000898       ?rttiTable@@3QBQEBDB       0000000180001898     libvcruntime:undname.obj
 0001:000008c0       ?nameTable@@3QBQEBDB       00000001800018c0     libvcruntime:undname.obj
 0001:000011c8       ?module_names@?A0x89697e75@@3QBQEB_WB 00000001800021c8     libvcruntime:winapi_downlevel.obj
 0001:00001298       ?candidate_modules@?1??try_get_FlsAlloc@@YAP6AKP6AXPEAX@Z@ZXZ@4QBW4module_id@?A0x89697e75@@B 0000000180002298     libvcruntime:winapi_downlevel.obj
 0001:000012b0       ?candidate_modules@?1??try_get_FlsFree@@YAP6AHK@ZXZ@4QBW4module_id@?A0x89697e75@@B 00000001800022b0     libvcruntime:winapi_downlevel.obj
 0001:000012c0       ?candidate_modules@?1??try_get_FlsGetValue@@YAP6APEAXK@ZXZ@4QBW4module_id@?A0x89697e75@@B 00000001800022c0     libvcruntime:winapi_downlevel.obj
 0001:000012d8       ?candidate_modules@?1??try_get_FlsSetValue@@YAP6AHKPEAX@ZXZ@4QBW4module_id@?A0x89697e75@@B 00000001800022d8     libvcruntime:winapi_downlevel.obj
 0001:000012f0       ?candidate_modules@?1??try_get_InitializeCriticalSectionEx@@YAP6AHPEAU_RTL_CRITICAL_SECTION@@KK@ZXZ@4QBW4module_id@?A0x89697e75@@B 00000001800022f0     libvcruntime:winapi_downlevel.obj
 0001:00001420       __acrt_initializers        0000000180002420     libucrt:initialization.obj
 0001:00001520       ?errtable@@3QBUerrentry@?A0x31fdb9ec@@B 0000000180002520     libucrt:errno.obj
 0001:00001680       ?_mb_locale_names@@3QBQEB_WB 0000000180002680     libucrt:mbctype.obj
 0001:000016e0       ?module_names@?A0x391cf84c@@3QBQEB_WB 00000001800026e0     libucrt:winapi_thunks.obj
 0001:00001bd8       ?candidate_modules@?1??try_get_FlsAlloc@@YAP6AKP6AXPEAX@Z@ZXZ@4QBW4module_id@?A0x391cf84c@@B 0000000180002bd8     libucrt:winapi_thunks.obj
 0001:00001be0       ?candidate_modules@?1??try_get_FlsFree@@YAP6AHK@ZXZ@4QBW4module_id@?A0x391cf84c@@B 0000000180002be0     libucrt:winapi_thunks.obj
 0001:00001be8       ?candidate_modules@?1??try_get_FlsGetValue@@YAP6APEAXK@ZXZ@4QBW4module_id@?A0x391cf84c@@B 0000000180002be8     libucrt:winapi_thunks.obj
 0001:00001bf0       ?candidate_modules@?1??try_get_FlsSetValue@@YAP6AHKPEAX@ZXZ@4QBW4module_id@?A0x391cf84c@@B 0000000180002bf0     libucrt:winapi_thunks.obj
 0001:00001bf8       ?candidate_modules@?1??try_get_InitializeCriticalSectionEx@@YAP6AHPEAU_RTL_CRITICAL_SECTION@@KK@ZXZ@4QBW4module_id@?A0x391cf84c@@B 0000000180002bf8     libucrt:winapi_thunks.obj
 0001:00001c00       ?candidate_modules@?1??try_get_LCMapStringEx@@YAP6AHPEB_WK0HPEA_WHPEAU_nlsversioninfo@@PEAX_J@ZXZ@4QBW4module_id@?A0x391cf84c@@B 0000000180002c00     libucrt:winapi_thunks.obj
 0001:00001c18       ?candidate_modules@?1??try_get_LocaleNameToLCID@@YAP6AKPEB_WK@ZXZ@4QBW4module_id@?A0x391cf84c@@B 0000000180002c18     libucrt:winapi_thunks.obj
 0001:00001c34       ?candidate_modules@?1??try_get_AppPolicyGetProcessTerminationMethod@@YAP6AJPEAXPEAW4AppPolicyProcessTerminationMethod@@@ZXZ@4QBW4module_id@?A0x391cf84c@@B 0000000180002c34     libucrt:winapi_thunks.obj
 0001:000032c0       ?LocaleNameToIndexTable@?A0x881e4c05@@3QBULocaleNameIndex@1@B 00000001800042c0     libucrt:lcidtoname_downlevel.obj
 0001:00004b60       ?LcidToLocaleNameTable@?A0x881e4c05@@3QBULcidToLocaleName@1@B 0000000180005b60     libucrt:lcidtoname_downlevel.obj
 0001:00005be0       __real_ninf                0000000180006be0     libucrt:log10.obj
 0001:00005bf0       __real_inf                 0000000180006bf0     libucrt:log10.obj
 0001:00005c00       __real_neg_qnan            0000000180006c00     libucrt:log10.obj
 0001:00005c10       __real_qnanbit             0000000180006c10     libucrt:log10.obj
 0001:00005c20       __int_1023                 0000000180006c20     libucrt:log10.obj
 0001:00005c30       __mask_001                 0000000180006c30     libucrt:log10.obj
 0001:00005c40       __mask_mant                0000000180006c40     libucrt:log10.obj
 0001:00005c50       __mask_mant_top8           0000000180006c50     libucrt:log10.obj
 0001:00005c60       __mask_mant9               0000000180006c60     libucrt:log10.obj
 0001:00005c70       __real_log10_e             0000000180006c70     libucrt:log10.obj
 0001:00005c80       __real_log10_e_lead        0000000180006c80     libucrt:log10.obj
 0001:00005c90       __real_log10_e_tail        0000000180006c90     libucrt:log10.obj
 0001:00005ca0       __real_log10_2_lead        0000000180006ca0     libucrt:log10.obj
 0001:00005cb0       __real_log10_2_tail        0000000180006cb0     libucrt:log10.obj
 0001:00005cc0       __real_two                 0000000180006cc0     libucrt:log10.obj
 0001:00005cd0       __real_one                 0000000180006cd0     libucrt:log10.obj
 0001:00005ce0       __real_half                0000000180006ce0     libucrt:log10.obj
 0001:00005cf0       __mask_100                 0000000180006cf0     libucrt:log10.obj
 0001:00005d00       __real_1_over_512          0000000180006d00     libucrt:log10.obj
 0001:00005d10       __real_1_over_2            0000000180006d10     libucrt:log10.obj
 0001:00005d20       __real_1_over_3            0000000180006d20     libucrt:log10.obj
 0001:00005d30       __real_1_over_4            0000000180006d30     libucrt:log10.obj
 0001:00005d40       __real_1_over_5            0000000180006d40     libucrt:log10.obj
 0001:00005d50       __real_1_over_6            0000000180006d50     libucrt:log10.obj
 0001:00005d60       __real_neg_1023            0000000180006d60     libucrt:log10.obj
 0001:00005d70       __mask_2045                0000000180006d70     libucrt:log10.obj
 0001:00005d80       __real_threshold           0000000180006d80     libucrt:log10.obj
 0001:00005d90       __real_near_one_lt         0000000180006d90     libucrt:log10.obj
 0001:00005da0       __real_near_one_gt         0000000180006da0     libucrt:log10.obj
 0001:00005db0       __real_min_norm            0000000180006db0     libucrt:log10.obj
 0001:00005dc0       __real_notsign             0000000180006dc0     libucrt:log10.obj
 0001:00005dd0       __real_ca1                 0000000180006dd0     libucrt:log10.obj
 0001:00005de0       __real_ca2                 0000000180006de0     libucrt:log10.obj
 0001:00005df0       __real_ca3                 0000000180006df0     libucrt:log10.obj
 0001:00005e00       __real_ca4                 0000000180006e00     libucrt:log10.obj
 0001:00005e10       __mask_lower               0000000180006e10     libucrt:log10.obj
 0001:00005e20       __flag_x_zero              0000000180006e20     libucrt:log10.obj
 0001:00005e24       __flag_x_neg               0000000180006e24     libucrt:log10.obj
 0001:00005e28       __flag_x_nan               0000000180006e28     libucrt:log10.obj
 0001:00007680       __real@433fffffffffffff    0000000180008680     libucrt:fpsr.obj
 0001:00007688       __real@c33fffffffffffff    0000000180008688     libucrt:fpsr.obj
 0001:00007690       GS_ExceptionPointers       0000000180008690     LIBCMT:gs_report.obj
 0001:00007c90       $$000000                   0000000180008c90     chkstk.obj
 0001:000085ac       $LN39                      00000001800095ac     NetCfg.obj
 0001:00008bd8       $LN42                      0000000180009bd8     NetCfg.obj
 0001:00009ab8       $LN297                     000000018000aab8     NetCfg.obj
 0001:00009ae8       $LN296                     000000018000aae8     NetCfg.obj
 0001:00009b18       $LN295                     000000018000ab18     NetCfg.obj
 0001:00009b48       $LN294                     000000018000ab48     NetCfg.obj
 0001:00009b78       $LN293                     000000018000ab78     NetCfg.obj
 0001:00009ba8       $LN292                     000000018000aba8     NetCfg.obj
 0001:00009bd8       $LN291                     000000018000abd8     NetCfg.obj
 0001:0000a284       $LN36                      000000018000b284     NetCfg.obj
 0001:0000bb40       $LN100                     000000018000cb40     NetClass.obj
 0001:0000d67c       $LN143                     000000018000e67c     NetClass.obj
 0001:0000d6ac       $LN142                     000000018000e6ac     NetClass.obj
 0001:00010114       ?dllmain_crt_dispatch@@YAHQEAUHINSTANCE__@@KQEAX@Z 0000000180011114 f   LIBCMT:dll_dllmain.obj
 0001:00010164       ?dllmain_crt_process_attach@@YAHQEAUHINSTANCE__@@QEAX@Z 0000000180011164 f   LIBCMT:dll_dllmain.obj
 0001:0001027c       ?dllmain_crt_process_detach@@YAH_N@Z 000000018001127c f   LIBCMT:dll_dllmain.obj
 0001:00010300       ?dllmain_dispatch@@YAHQEAUHINSTANCE__@@KQEAX@Z 0000000180011300 f   LIBCMT:dll_dllmain.obj
 0001:00010f10       $$000000                   0000000180011f10     libvcruntime:memset.obj
 0001:0001100c       MsetTab                    000000018001200c     libvcruntime:memset.obj
 0001:000112f0       $$000000                   00000001800122f0     libvcruntime:memcpy.obj
 0001:00011397       MoveSmall                  0000000180012397     libvcruntime:memcpy.obj
 0001:00011b90       $$000000                   0000000180012b90     libvcruntime:_jmpuwind_.obj
 0001:00011e58       ?try_get_function@@YAPEAXW4function_id@?A0x89697e75@@QEBDQEBW4module_id@2@2@Z 0000000180012e58 f   libvcruntime:winapi_downlevel.obj
 0001:00012240       $$000000                   0000000180013240     libvcruntime:handlers.obj
 0001:00012608       ??$?RV<lambda_d80eeec6fff315bfe5c115232f3240e3>@@AEAV<lambda_6e4b09c48022b2350581041d5f6b0c4c>@@V<lambda_2358e3775559c9db80273638284d5e45>@@@?$__crt_seh_guarded_call@X@@QEAAX$$QEAV<lambda_d80eeec6fff315bfe5c115232f3240e3>@@AEAV<lambda_6e4b09c48022b2350581041d5f6b0c4c>@@$$QEAV<lambda_2358e3775559c9db80273638284d5e45>@@@Z 0000000180013608 f   libucrt:exit.obj
 0001:00012640       ??R<lambda_6e4b09c48022b2350581041d5f6b0c4c>@@QEBA@XZ 0000000180013640 f   libucrt:exit.obj
 0001:00012718       ?atexit_exception_filter@@YAHK@Z 0000000180013718 f   libucrt:exit.obj
 0001:00012724       ?common_exit@@YAXHW4_crt_exit_cleanup_mode@@W4_crt_exit_return_mode@@@Z 0000000180013724 f   libucrt:exit.obj
 0001:000127e0       ?exit_or_terminate_process@@YAXI@Z 00000001800137e0 f   libucrt:exit.obj
 0001:0001282c       ?try_cor_exit_process@@YAXI@Z 000000018001382c f   libucrt:exit.obj
 0001:000128b4       ??$parse_command_line@D@@YAXPEADPEAPEAD0PEA_K2@Z 00000001800138b4 f   libucrt:argv_parsing.obj
 0001:00012c58       ??$common_initialize_environment_nolock@D@@YAHXZ 0000000180013c58 f   libucrt:environment_initialization.obj
 0001:00012cc4       ??$create_environment@D@@YAQEAPEADQEAD@Z 0000000180013cc4 f   libucrt:environment_initialization.obj
 0001:00012dd0       ??$free_environment@D@@YAXQEAPEAD@Z 0000000180013dd0 f   libucrt:environment_initialization.obj
 0001:00012dd0       ??$free_environment@_W@@YAXQEAPEA_W@Z 0000000180013dd0 f   libucrt:environment_initialization.obj
 0001:00012e14       ??$uninitialize_environment_internal@D@@YAXAEAPEAPEAD@Z 0000000180013e14 f   libucrt:environment_initialization.obj
 0001:00012e30       ??$uninitialize_environment_internal@_W@@YAXAEAPEAPEA_W@Z 0000000180013e30 f   libucrt:environment_initialization.obj
 0001:00012e8c       ??$?RV<lambda_7777bce6b2f8c936911f934f8298dc43>@@AEAV<lambda_f03950bc5685219e0bcd2087efbe011e>@@V<lambda_3883c3dff614d5e0c5f61bb1ac94921c>@@@?$__crt_seh_guarded_call@H@@QEAAH$$QEAV<lambda_7777bce6b2f8c936911f934f8298dc43>@@AEAV<lambda_f03950bc5685219e0bcd2087efbe011e>@@$$QEAV<lambda_3883c3dff614d5e0c5f61bb1ac94921c>@@@Z 0000000180013e8c f   libucrt:onexit.obj
 0001:00012ec8       ??R<lambda_f03950bc5685219e0bcd2087efbe011e>@@QEBAHXZ 0000000180013ec8 f   libucrt:onexit.obj
 0001:00013090       initialize_global_variables 0000000180014090 f   libucrt:initialization.obj
 0001:000130a4       initialize_c               00000001800140a4 f   libucrt:initialization.obj
 0001:000130c8       uninitialize_c             00000001800140c8 f   libucrt:initialization.obj
 0001:000130c8       initialize_environment     00000001800140c8 f   libucrt:initialization.obj
 0001:000130c8       initialize_global_state_isolation 00000001800140c8 f   libucrt:initialization.obj
 0001:000130c8       uninitialize_global_state_isolation 00000001800140c8 f   libucrt:initialization.obj
 0001:000130c8       report_memory_leaks        00000001800140c8 f   libucrt:initialization.obj
 0001:000130cc       uninitialize_environment   00000001800140cc f   libucrt:initialization.obj
 0001:000130dc       initialize_pointers        00000001800140dc f   libucrt:initialization.obj
 0001:00013130       uninitialize_vcruntime     0000000180014130 f   libucrt:initialization.obj
 0001:00013138       uninitialize_allocated_memory 0000000180014138 f   libucrt:initialization.obj
 0001:00013178       uninitialize_allocated_io_buffers 0000000180014178 f   libucrt:initialization.obj
 0001:000133f0       $$000000                   00000001800143f0     libucrt:strncmp.obj
 0001:000136b4       ??$?RV<lambda_0ae27a3a962d80f24befdcbee591983d>@@AEAV<lambda_8d0ee55de4b1038c4002e0adecdf1839>@@V<lambda_dc504788e8f1664fe9b84e20bfb512f2>@@@?$__crt_seh_guarded_call@X@@QEAAX$$QEAV<lambda_0ae27a3a962d80f24befdcbee591983d>@@AEAV<lambda_8d0ee55de4b1038c4002e0adecdf1839>@@$$QEAV<lambda_dc504788e8f1664fe9b84e20bfb512f2>@@@Z 00000001800146b4 f   libucrt:per_thread_data.obj
 0001:000136f4       ??$?RV<lambda_2d41944a1d46af3157314b8a01080d33>@@AEAV<lambda_8f455de75cd7d7f24b4096f044d8b9e6>@@V<lambda_aa500f224e6afead328df44964fe2772>@@@?$__crt_seh_guarded_call@X@@QEAAX$$QEAV<lambda_2d41944a1d46af3157314b8a01080d33>@@AEAV<lambda_8f455de75cd7d7f24b4096f044d8b9e6>@@$$QEAV<lambda_aa500f224e6afead328df44964fe2772>@@@Z 00000001800146f4 f   libucrt:per_thread_data.obj
 0001:00013734       ??$?RV<lambda_aa87e3671a710a21b5dc78c0bdf72e11>@@AEAV<lambda_92619d2358a28f41a33ba319515a20b9>@@V<lambda_6992ecaafeb10aed2b74cb1fae11a551>@@@?$__crt_seh_guarded_call@X@@QEAAX$$QEAV<lambda_aa87e3671a710a21b5dc78c0bdf72e11>@@AEAV<lambda_92619d2358a28f41a33ba319515a20b9>@@$$QEAV<lambda_6992ecaafeb10aed2b74cb1fae11a551>@@@Z 0000000180014734 f   libucrt:per_thread_data.obj
 0001:0001377c       ??$?RV<lambda_f2e299630e499de9f9a165e60fcd3db5>@@AEAV<lambda_2ae9d31cdba2644fcbeaf08da7c24588>@@V<lambda_40d01ff24d0e7b3814fdbdcee8eab3c7>@@@?$__crt_seh_guarded_call@X@@QEAAX$$QEAV<lambda_f2e299630e499de9f9a165e60fcd3db5>@@AEAV<lambda_2ae9d31cdba2644fcbeaf08da7c24588>@@$$QEAV<lambda_40d01ff24d0e7b3814fdbdcee8eab3c7>@@@Z 000000018001477c f   libucrt:per_thread_data.obj
 0001:000137dc       ?construct_ptd_array@@YAXQEAU__acrt_ptd@@@Z 00000001800147dc f   libucrt:per_thread_data.obj
 0001:000138ac       ?destroy_fls@@YAXPEAX@Z    00000001800148ac f   libucrt:per_thread_data.obj
 0001:000138cc       ?destroy_ptd_array@@YAXQEAU__acrt_ptd@@@Z 00000001800148cc f   libucrt:per_thread_data.obj
 0001:000139c4       ?replace_current_thread_locale_nolock@@YAXQEAU__acrt_ptd@@QEAU__crt_locale_data@@@Z 00000001800149c4 f   libucrt:per_thread_data.obj
 0001:0001411c       ?<lambda_invoker_cdecl>@<lambda_c2303d2482d7c3675ea2e24c4cfb6115>@@CAHPEBX0@Z 000000018001511c f   libucrt:argv_wildcards.obj
 0001:00014130       ??$common_expand_argv_wildcards@D@@YAHQEAPEADQEAPEAPEAD@Z 0000000180015130 f   libucrt:argv_wildcards.obj
 0001:0001433c       ??$copy_and_add_argument_to_buffer@D@@YAHQEBD0_KAEAV?$argument_list@D@?A0x5f5c8891@@@Z 000000018001533c f   libucrt:argv_wildcards.obj
 0001:000144d4       ??$expand_argument_wildcards@D@@YAHQEAD0AEAV?$argument_list@D@?A0x5f5c8891@@@Z 00000001800154d4 f   libucrt:argv_wildcards.obj
 0001:00014688       ??$?RV<lambda_efdfa57d1f175319df784efa44bb7b81>@@AEAV<lambda_5f0a4c1567f8adc6734073e5d1e1b35c>@@V<lambda_2e8a7d3640ea6ccb4c2413664c2db6fd>@@@?$__crt_seh_guarded_call@X@@QEAAX$$QEAV<lambda_efdfa57d1f175319df784efa44bb7b81>@@AEAV<lambda_5f0a4c1567f8adc6734073e5d1e1b35c>@@$$QEAV<lambda_2e8a7d3640ea6ccb4c2413664c2db6fd>@@@Z 0000000180015688 f   libucrt:mbctype.obj
 0001:0001485c       ?getSystemCP@@YAHH@Z       000000018001585c f   libucrt:mbctype.obj
 0001:000148dc       ?setSBCS@@YAXPEAU__crt_multibyte_data@@@Z 00000001800158dc f   libucrt:mbctype.obj
 0001:0001496c       ?setSBUpLow@@YAXPEAU__crt_multibyte_data@@@Z 000000018001596c f   libucrt:mbctype.obj
 0001:00014b4c       ?setmbcp_internal@@YAHH_NQEAU__acrt_ptd@@QEAPEAU__crt_multibyte_data@@@Z 0000000180015b4c f   libucrt:mbctype.obj
 0001:00014d10       ?update_thread_multibyte_data_internal@@YAPEAU__crt_multibyte_data@@QEAU__acrt_ptd@@QEAPEAU1@@Z 0000000180015d10 f   libucrt:mbctype.obj
 0001:00015104       ?x_ismbbtype_l@@YAHPEAU__crt_locale_pointers@@IHH@Z 0000000180016104 f   libucrt:ismbbyte.obj
 0001:000153c4       ?try_get_function@@YAPEAXW4function_id@?A0x391cf84c@@QEBDQEBW4module_id@2@2@Z 00000001800163c4 f   libucrt:winapi_thunks.obj
 0001:0001595c       ?initialize_inherited_file_handles_nolock@@YAXXZ 000000018001695c f   libucrt:ioinit.obj
 0001:00015a48       ?initialize_stdio_handles_nolock@@YAXXZ 0000000180016a48 f   libucrt:ioinit.obj
 0001:00015c7c       ??$?RV<lambda_450d765d439847d4c735a33c368b5fc0>@@AEAV<lambda_44731a7d0e6d81c3e6aa82d741081786>@@V<lambda_601a2a7da3b7a96e9554ac7215c4b07c>@@@?$__crt_seh_guarded_call@P6AXH@Z@@QEAAP6AXH@Z$$QEAV<lambda_450d765d439847d4c735a33c368b5fc0>@@AEAV<lambda_44731a7d0e6d81c3e6aa82d741081786>@@$$QEAV<lambda_601a2a7da3b7a96e9554ac7215c4b07c>@@@Z 0000000180016c7c f   libucrt:signal.obj
 0001:00015fe0       ??$?RV<lambda_842d9ff0dc9ef11c61343bbaebe7f885>@@AEAV<lambda_c5860995281e5c4ce005b3de8f5874ee>@@V<lambda_d90129c13df834fdcbf8d2b88dafcf2d>@@@?$__crt_seh_guarded_call@X@@QEAAX$$QEAV<lambda_842d9ff0dc9ef11c61343bbaebe7f885>@@AEAV<lambda_c5860995281e5c4ce005b3de8f5874ee>@@$$QEAV<lambda_d90129c13df834fdcbf8d2b88dafcf2d>@@@Z 0000000180016fe0 f   libucrt:fflush.obj
 0001:0001607c       ??$?RV<lambda_886d6c58226a84441f68b9f2b8217b83>@@AEAV<lambda_ab61a845afdef5b7c387490eaf3616ee>@@V<lambda_f7f22ab5edc0698d5f6905b0d3f44752>@@@?$__crt_seh_guarded_call@X@@QEAAX$$QEAV<lambda_886d6c58226a84441f68b9f2b8217b83>@@AEAV<lambda_ab61a845afdef5b7c387490eaf3616ee>@@$$QEAV<lambda_f7f22ab5edc0698d5f6905b0d3f44752>@@@Z 000000018001707c f   libucrt:fflush.obj
 0001:00016164       ?common_flush_all@@YAH_N@Z 0000000180017164 f   libucrt:fflush.obj
 0001:00016608       ??$?RV<lambda_410d79af7f07d98d83a3f525b3859a53>@@AEAV<lambda_3e16ef9562a7dcce91392c22ab16ea36>@@V<lambda_38119f0e861e05405d8a144b9b982f0a>@@@?$__crt_seh_guarded_call@X@@QEAAX$$QEAV<lambda_410d79af7f07d98d83a3f525b3859a53>@@AEAV<lambda_3e16ef9562a7dcce91392c22ab16ea36>@@$$QEAV<lambda_38119f0e861e05405d8a144b9b982f0a>@@@Z 0000000180017608 f   libucrt:wsetlocale.obj
 0001:00016f84       fallbackMethod             0000000180017f84 f   libucrt:strpbrk.obj
 0001:00017354       $LN78                      0000000180018354     libucrt:strpbrk.obj
 0001:00017390       $LN77                      0000000180018390     libucrt:strpbrk.obj
 0001:000173d0       $LN76                      00000001800183d0     libucrt:strpbrk.obj
 0001:000174a8       ?initialize_multibyte@@YAHXZ 00000001800184a8 f   libucrt:multibyte_initializer.obj
 0001:00017650       ?__acrt_LCMapStringA_stat@@YAHPEAU__crt_locale_pointers@@PEB_WKPEBDHPEADHHH@Z 0000000180018650 f   libucrt:lcmapstringa.obj
 0001:00017a44       ?GetTableIndexFromLocaleName@@YAHPEB_W@Z 0000000180018a44 f   libucrt:lcidtoname_downlevel.obj
 0001:00017e50       ??$?RV<lambda_a37b2b86f63e897a80ea819b0eb08c01>@@AEAV<lambda_38ce7e780aa69e748d6df282ebc68efe>@@V<lambda_99fb1378e971ab6e7edea83e3a7a83a2>@@@?$__crt_seh_guarded_call@H@@QEAAH$$QEAV<lambda_a37b2b86f63e897a80ea819b0eb08c01>@@AEAV<lambda_38ce7e780aa69e748d6df282ebc68efe>@@$$QEAV<lambda_99fb1378e971ab6e7edea83e3a7a83a2>@@@Z 0000000180018e50 f   libucrt:commit.obj
 0001:00017f70       ?write_double_translated_ansi_nolock@@YA?AUwrite_result@?A0x17268360@@HQEBDI@Z 0000000180018f70 f   libucrt:write.obj
 0001:00018194       ?write_text_ansi_nolock@@YA?AUwrite_result@?A0x17268360@@HQEBDI@Z 0000000180019194 f   libucrt:write.obj
 0001:00018298       ?write_text_utf16le_nolock@@YA?AUwrite_result@?A0x17268360@@HQEBDI@Z 0000000180019298 f   libucrt:write.obj
 0001:000183b4       ?write_text_utf8_nolock@@YA?AUwrite_result@?A0x17268360@@HQEBDI@Z 00000001800193b4 f   libucrt:write.obj
 0001:00018c6c       ?free_crt_array_internal@@YAXQEAPEBX_K@Z 0000000180019c6c f   libucrt:inittime.obj
 0001:00018de8       ??$common_lseek_nolock@_J@@YA_JH_JH@Z 0000000180019de8 f   libucrt:lseek.obj
 0001:00018fb0       $$000000                   0000000180019fb0     libucrt:log10.obj
 0001:0001968c       ??$?RV<lambda_751a882b2c74d4b022dec766aa51a29a>@@AEAV<lambda_628dfdc04ba53c8bfc02c9951375f3f5>@@V<lambda_f6c7be5f7998530c34de24c7437d6b54>@@@?$__crt_seh_guarded_call@H@@QEAAH$$QEAV<lambda_751a882b2c74d4b022dec766aa51a29a>@@AEAV<lambda_628dfdc04ba53c8bfc02c9951375f3f5>@@$$QEAV<lambda_f6c7be5f7998530c34de24c7437d6b54>@@@Z 000000018001a68c f   libucrt:close.obj
 0001:0001987c       _call_matherr              000000018001a87c f   libucrt:libm_error.obj
 0001:000198e4       _exception_enabled         000000018001a8e4 f   libucrt:libm_error.obj
 0001:00019b60       _log_special_common        000000018001ab60 f   libucrt:log_special.obj
 0001:00019c00       $$000000                   000000018001ac00     libucrt:fpsr.obj
 0001:0001a1f0       $$000000                   000000018001b1f0     LIBCMT:_amdsecgs_.obj
 0001:0001a3dc       capture_current_context    000000018001b3dc f   LIBCMT:gs_report.obj
 0001:0001a44c       capture_previous_context   000000018001b44c f   LIBCMT:gs_report.obj
 0001:0001a4c0       $$000000                   000000018001b4c0     libvcruntime:memcmp.obj
 0001:0001a5a0       $$000000                   000000018001b5a0     LIBCMT:_guard_dispatch_.obj
 0001:0001a5c0       ?fin$0@?0??dllmain_crt_process_attach@@YAHQEAUHINSTANCE__@@QEAX@Z@4HA 000000018001b5c0 f   LIBCMT:dll_dllmain.obj
 0001:0001a5d7       ?fin$0@?0??dllmain_crt_process_detach@@YAH_N@Z@4HA 000000018001b5d7 f   LIBCMT:dll_dllmain.obj
 0001:0001a5f3       ?filt$0@?0??dllmain_dispatch@@YAHQEAUHINSTANCE__@@KQEAX@Z@4HA 000000018001b5f3 f   LIBCMT:dll_dllmain.obj
 0001:0001a629       __scrt_is_nonwritable_in_current_image$filt$0 000000018001b629 f   LIBCMT:utility.obj
 0001:0001a641       __DestructExceptionObject$filt$0 000000018001b641 f   libvcruntime:ehhelpers.obj
 0001:0001a659       _query_new_handler$fin$0   000000018001b659 f   libucrt:new_handler.obj
 0001:0001a66f       ?fin$0@?0???$?RV<lambda_aa87e3671a710a21b5dc78c0bdf72e11>@@AEAV<lambda_92619d2358a28f41a33ba319515a20b9>@@V<lambda_6992ecaafeb10aed2b74cb1fae11a551>@@@?$__crt_seh_guarded_call@X@@QEAAX$$QEAV<lambda_aa87e3671a710a21b5dc78c0bdf72e11>@@AEAV<lambda_92619d2358a28f41a33ba319515a20b9>@@$$QEAV<lambda_6992ecaafeb10aed2b74cb1fae11a551>@@@Z@4HA 000000018001b66f f   libucrt:per_thread_data.obj
 0001:0001a66f       ?fin$0@?0???$?RV<lambda_f2e299630e499de9f9a165e60fcd3db5>@@AEAV<lambda_2ae9d31cdba2644fcbeaf08da7c24588>@@V<lambda_40d01ff24d0e7b3814fdbdcee8eab3c7>@@@?$__crt_seh_guarded_call@X@@QEAAX$$QEAV<lambda_f2e299630e499de9f9a165e60fcd3db5>@@AEAV<lambda_2ae9d31cdba2644fcbeaf08da7c24588>@@$$QEAV<lambda_40d01ff24d0e7b3814fdbdcee8eab3c7>@@@Z@4HA 000000018001b66f f   libucrt:per_thread_data.obj
 0001:0001a66f       ?fin$0@?0???$?RV<lambda_d80eeec6fff315bfe5c115232f3240e3>@@AEAV<lambda_6e4b09c48022b2350581041d5f6b0c4c>@@V<lambda_2358e3775559c9db80273638284d5e45>@@@?$__crt_seh_guarded_call@X@@QEAAX$$QEAV<lambda_d80eeec6fff315bfe5c115232f3240e3>@@AEAV<lambda_6e4b09c48022b2350581041d5f6b0c4c>@@$$QEAV<lambda_2358e3775559c9db80273638284d5e45>@@@Z@4HA 000000018001b66f f   libucrt:exit.obj
 0001:0001a66f       ?fin$0@?0???$?RV<lambda_7777bce6b2f8c936911f934f8298dc43>@@AEAV<lambda_f03950bc5685219e0bcd2087efbe011e>@@V<lambda_3883c3dff614d5e0c5f61bb1ac94921c>@@@?$__crt_seh_guarded_call@H@@QEAAH$$QEAV<lambda_7777bce6b2f8c936911f934f8298dc43>@@AEAV<lambda_f03950bc5685219e0bcd2087efbe011e>@@$$QEAV<lambda_3883c3dff614d5e0c5f61bb1ac94921c>@@@Z@4HA 000000018001b66f f   libucrt:onexit.obj
 0001:0001a66f       ?fin$0@?0???$?RV<lambda_450d765d439847d4c735a33c368b5fc0>@@AEAV<lambda_44731a7d0e6d81c3e6aa82d741081786>@@V<lambda_601a2a7da3b7a96e9554ac7215c4b07c>@@@?$__crt_seh_guarded_call@P6AXH@Z@@QEAAP6AXH@Z$$QEAV<lambda_450d765d439847d4c735a33c368b5fc0>@@AEAV<lambda_44731a7d0e6d81c3e6aa82d741081786>@@$$QEAV<lambda_601a2a7da3b7a96e9554ac7215c4b07c>@@@Z@4HA 000000018001b66f f   libucrt:signal.obj
 0001:0001a66f       ?fin$0@?0???$?RV<lambda_0ae27a3a962d80f24befdcbee591983d>@@AEAV<lambda_8d0ee55de4b1038c4002e0adecdf1839>@@V<lambda_dc504788e8f1664fe9b84e20bfb512f2>@@@?$__crt_seh_guarded_call@X@@QEAAX$$QEAV<lambda_0ae27a3a962d80f24befdcbee591983d>@@AEAV<lambda_8d0ee55de4b1038c4002e0adecdf1839>@@$$QEAV<lambda_dc504788e8f1664fe9b84e20bfb512f2>@@@Z@4HA 000000018001b66f f   libucrt:per_thread_data.obj
 0001:0001a66f       ?fin$0@?0???$?RV<lambda_2d41944a1d46af3157314b8a01080d33>@@AEAV<lambda_8f455de75cd7d7f24b4096f044d8b9e6>@@V<lambda_aa500f224e6afead328df44964fe2772>@@@?$__crt_seh_guarded_call@X@@QEAAX$$QEAV<lambda_2d41944a1d46af3157314b8a01080d33>@@AEAV<lambda_8f455de75cd7d7f24b4096f044d8b9e6>@@$$QEAV<lambda_aa500f224e6afead328df44964fe2772>@@@Z@4HA 000000018001b66f f   libucrt:per_thread_data.obj
 0001:0001a66f       ?fin$0@?0???$?RV<lambda_efdfa57d1f175319df784efa44bb7b81>@@AEAV<lambda_5f0a4c1567f8adc6734073e5d1e1b35c>@@V<lambda_2e8a7d3640ea6ccb4c2413664c2db6fd>@@@?$__crt_seh_guarded_call@X@@QEAAX$$QEAV<lambda_efdfa57d1f175319df784efa44bb7b81>@@AEAV<lambda_5f0a4c1567f8adc6734073e5d1e1b35c>@@$$QEAV<lambda_2e8a7d3640ea6ccb4c2413664c2db6fd>@@@Z@4HA 000000018001b66f f   libucrt:mbctype.obj
 0001:0001a689       ?filt$0@?0???R<lambda_6e4b09c48022b2350581041d5f6b0c4c>@@QEBA@XZ@4HA 000000018001b689 f   libucrt:exit.obj
 0001:0001a6a4       ?fin$0@?0??update_thread_multibyte_data_internal@@YAPEAU__crt_multibyte_data@@QEAU__acrt_ptd@@QEAPEAU1@@Z@4HA 000000018001b6a4 f   libucrt:mbctype.obj
 0001:0001a6bd       __acrt_lowio_ensure_fh_exists$fin$0 000000018001b6bd f   libucrt:osfinfo.obj
 0001:0001a6bd       __acrt_initialize_lowio$fin$0 000000018001b6bd f   libucrt:ioinit.obj
 0001:0001a6d6       raise$fin$0                000000018001b6d6 f   libucrt:signal.obj
 0001:0001a6f7       ?fin$0@?0???$?RV<lambda_842d9ff0dc9ef11c61343bbaebe7f885>@@AEAV<lambda_c5860995281e5c4ce005b3de8f5874ee>@@V<lambda_d90129c13df834fdcbf8d2b88dafcf2d>@@@?$__crt_seh_guarded_call@X@@QEAAX$$QEAV<lambda_842d9ff0dc9ef11c61343bbaebe7f885>@@AEAV<lambda_c5860995281e5c4ce005b3de8f5874ee>@@$$QEAV<lambda_d90129c13df834fdcbf8d2b88dafcf2d>@@@Z@4HA 000000018001b6f7 f   libucrt:fflush.obj
 0001:0001a712       ?fin$0@?0???$?RV<lambda_886d6c58226a84441f68b9f2b8217b83>@@AEAV<lambda_ab61a845afdef5b7c387490eaf3616ee>@@V<lambda_f7f22ab5edc0698d5f6905b0d3f44752>@@@?$__crt_seh_guarded_call@X@@QEAAX$$QEAV<lambda_886d6c58226a84441f68b9f2b8217b83>@@AEAV<lambda_ab61a845afdef5b7c387490eaf3616ee>@@$$QEAV<lambda_f7f22ab5edc0698d5f6905b0d3f44752>@@@Z@4HA 000000018001b712 f   libucrt:fflush.obj
 0001:0001a72f       ?fin$0@?0???$?RV<lambda_410d79af7f07d98d83a3f525b3859a53>@@AEAV<lambda_3e16ef9562a7dcce91392c22ab16ea36>@@V<lambda_38119f0e861e05405d8a144b9b982f0a>@@@?$__crt_seh_guarded_call@X@@QEAAX$$QEAV<lambda_410d79af7f07d98d83a3f525b3859a53>@@AEAV<lambda_3e16ef9562a7dcce91392c22ab16ea36>@@$$QEAV<lambda_38119f0e861e05405d8a144b9b982f0a>@@@Z@4HA 000000018001b72f f   libucrt:wsetlocale.obj
 0001:0001a749       __acrt_update_thread_locale_data$fin$0 000000018001b749 f   libucrt:locale_refcounting.obj
 0001:0001a762       ?fin$0@?0???$?RV<lambda_751a882b2c74d4b022dec766aa51a29a>@@AEAV<lambda_628dfdc04ba53c8bfc02c9951375f3f5>@@V<lambda_f6c7be5f7998530c34de24c7437d6b54>@@@?$__crt_seh_guarded_call@H@@QEAAH$$QEAV<lambda_751a882b2c74d4b022dec766aa51a29a>@@AEAV<lambda_628dfdc04ba53c8bfc02c9951375f3f5>@@$$QEAV<lambda_f6c7be5f7998530c34de24c7437d6b54>@@@Z@4HA 000000018001b762 f   libucrt:close.obj
 0001:0001a762       ?fin$0@?0???$?RV<lambda_a37b2b86f63e897a80ea819b0eb08c01>@@AEAV<lambda_38ce7e780aa69e748d6df282ebc68efe>@@V<lambda_99fb1378e971ab6e7edea83e3a7a83a2>@@@?$__crt_seh_guarded_call@H@@QEAAH$$QEAV<lambda_a37b2b86f63e897a80ea819b0eb08c01>@@AEAV<lambda_38ce7e780aa69e748d6df282ebc68efe>@@$$QEAV<lambda_99fb1378e971ab6e7edea83e3a7a83a2>@@@Z@4HA 000000018001b762 f   libucrt:commit.obj
 0001:0001a77c       _write$fin$0               000000018001b77c f   libucrt:write.obj
 0001:0001a793       _fcloseall$fin$0           000000018001b793 f   libucrt:closeall.obj
 0001:0001a7ac       fclose$fin$0               000000018001b7ac f   libucrt:fclose.obj
 0001:0001a7c4       _ctrlfp$filt$0             000000018001b7c4 f   libucrt:fpctrl.obj
 0001:0001a7f0       _IsNonwritableInCurrentImage$filt$0 000000018001b7f0 f   LIBCMT:pesect.obj
 0001:0001a810       $xdatasym                  000000018001b810     chkstk.obj
 0001:0001a818       $unwind$__acrt_getptd_head 000000018001b818     libucrt:per_thread_data.obj
 0001:0001a818       $unwind$??_G?$DialogItemBinding@UFarDialogItem@@@@UEAAPEAXI@Z 000000018001b818     NetCfg.obj
 0001:0001a818       $unwind$?SaveValue@PluginIntEditFieldBinding@@UEAAXPEAUFarDialogItem@@H@Z 000000018001b818     NetCfg.obj
 0001:0001a818       $unwind$?SaveValue@PluginCheckBoxBinding@@UEAAXPEAUFarDialogItem@@H@Z 000000018001b818     NetCfg.obj
 0001:0001a818       $unwind$__acrt_stdio_free_buffer_nolock 000000018001b818     libucrt:_freebuf.obj
 0001:0001a818       $unwind$__acrt_uninitialize_locks 000000018001b818     libucrt:locks.obj
 0001:0001a818       $unwind$??_GPluginIntEditFieldBinding@@UEAAPEAXI@Z 000000018001b818     NetCfg.obj
 0001:0001a818       $unwind$__acrt_initialize_locks 000000018001b818     libucrt:locks.obj
 0001:0001a818       $unwind$_malloc_base       000000018001b818     libucrt:malloc_base.obj
 0001:0001a818       $unwind$ExitFARW           000000018001b818     NetClass.obj
 0001:0001a818       $unwind$?SaveValue@PluginUIntEditFieldBinding@@UEAAXPEAUFarDialogItem@@H@Z 000000018001b818     NetCfg.obj
 0001:0001a818       $unwind$strcpy_s           000000018001b818     libucrt:strcpy_s.obj
 0001:0001a818       $unwind$wcscpy_s           000000018001b818     libucrt:wcscpy_s.obj
 0001:0001a818       $unwind$uninitialize_allocated_memory 000000018001b818     libucrt:initialization.obj
 0001:0001a818       $unwind$initialize_pointers 000000018001b818     libucrt:initialization.obj
 0001:0001a818       $unwind$??_GPluginUIntEditFieldBinding@@UEAAPEAXI@Z 000000018001b818     NetCfg.obj
 0001:0001a818       $unwind$__acrt_freeptd     000000018001b818     libucrt:per_thread_data.obj
 0001:0001a818       $unwind$??_GPluginRadioButtonBinding@@UEAAPEAXI@Z 000000018001b818     NetCfg.obj
 0001:0001a818       $unwind$__acrt_allocate_buffer_for_argv 000000018001b818     libucrt:argv_parsing.obj
 0001:0001a818       $unwind$?exit_or_terminate_process@@YAXI@Z 000000018001b818     libucrt:exit.obj
 0001:0001a818       $unwind$?try_cor_exit_process@@YAXI@Z 000000018001b818     libucrt:exit.obj
 0001:0001a818       $unwind$_callnewh          000000018001b818     libucrt:new_handler.obj
 0001:0001a818       $unwind$__acrt_get_process_end_policy 000000018001b818     libucrt:win_policies.obj
 0001:0001a818       $unwind$__acrt_uninitialize_winapi_thunks 000000018001b818     libucrt:winapi_thunks.obj
 0001:0001a818       $unwind$__acrt_FlsAlloc    000000018001b818     libucrt:winapi_thunks.obj
 0001:0001a818       $unwind$__acrt_FlsFree     000000018001b818     libucrt:winapi_thunks.obj
 0001:0001a818       $unwind$??_GPluginCheckBoxBinding@@UEAAPEAXI@Z 000000018001b818     NetCfg.obj
 0001:0001a818       $unwind$__acrt_AppPolicyGetProcessTerminationMethodInternal 000000018001b818     libucrt:winapi_thunks.obj
 0001:0001a818       $unwind$_clrfp             000000018001b818     libucrt:fpctrl.obj
 0001:0001a818       $unwind$__vcrt_FlsGetValue 000000018001b818     libvcruntime:winapi_downlevel.obj
 0001:0001a818       $unwind$_set_statfp        000000018001b818     libucrt:fpctrl.obj
 0001:0001a818       $unwind$__vcrt_FlsFree     000000018001b818     libvcruntime:winapi_downlevel.obj
 0001:0001a818       $unwind$_calloc_base       000000018001b818     libucrt:calloc_base.obj
 0001:0001a818       $unwind$__vcrt_FlsAlloc    000000018001b818     libvcruntime:winapi_downlevel.obj
 0001:0001a818       $unwind$__vcrt_uninitialize_locks 000000018001b818     libvcruntime:locks.obj
 0001:0001a818       $unwind$__vcrt_initialize_locks 000000018001b818     libvcruntime:locks.obj
 0001:0001a818       $unwind$__vcrt_freeptd     000000018001b818     libvcruntime:per_thread_data.obj
 0001:0001a818       $unwind$__std_type_info_destroy_list 000000018001b818     libvcruntime:std_type_info.obj
 0001:0001a818       $unwind$__std_exception_destroy 000000018001b818     libvcruntime:std_exception.obj
 0001:0001a818       $unwind$??_Gtype_info@@UEAAPEAXI@Z 000000018001b818     LIBCMT:std_type_info_static.obj
 0001:0001a818       $unwind$__scrt_uninitialize_crt 000000018001b818     LIBCMT:utility.obj
 0001:0001a818       $unwind$ClosePanelW        000000018001b818     Network.obj
 0001:0001a818       $unwind$__raise_securityfailure 000000018001b818     LIBCMT:gs_report.obj
 0001:0001a818       $unwind$__scrt_initialize_crt 000000018001b818     LIBCMT:utility.obj
 0001:0001a818       $unwind$__scrt_release_startup_lock 000000018001b818     LIBCMT:utility.obj
 0001:0001a818       $unwind$??0bad_array_new_length@std@@QEAA@AEBV01@@Z 000000018001b818     LIBCMT:throw_bad_alloc.obj
 0001:0001a818       $unwind$??0bad_alloc@std@@QEAA@AEBV01@@Z 000000018001b818     LIBCMT:throw_bad_alloc.obj
 0001:0001a818       $unwind$??0exception@std@@QEAA@AEBV01@@Z 000000018001b818     LIBCMT:throw_bad_alloc.obj
 0001:0001a818       $unwind$??2@YAPEAX_K@Z     000000018001b818     LIBCMT:new_scalar.obj
 0001:0001a818       $unwind$??1TSaveScreen@@QEAA@XZ 000000018001b818     NetMix.obj
 0001:0001a818       $unwind$?Inflate@SimpleString@@QEAAX_K@Z 000000018001b818     NetClass.obj
 0001:0001a818       $unwind$??_GPluginEditFieldBinding@@UEAAPEAXI@Z 000000018001b818     NetClass.obj
 0001:0001a818       $unwind$?SaveValue@PluginEditFieldBinding@@UEAAXPEAUFarDialogItem@@H@Z 000000018001b818     NetClass.obj
 0001:0001a818       $unwind$_fflush_nolock     000000018001b818     libucrt:fflush.obj
 0001:0001a818       $unwind$__acrt_uninitialize_stdio 000000018001b818     libucrt:_file.obj
 0001:0001a818       $unwind$__acrt_update_locale_info 000000018001b818     libucrt:locale_update.obj
 0001:0001a818       $unwind$__acrt_update_multibyte_info 000000018001b818     libucrt:locale_update.obj
 0001:0001a818       $unwind$?IsMSNetResource@NetBrowser@@SAHAEBU_NETRESOURCEW@@@Z 000000018001b818     NetClass.obj
 0001:0001a818       $unwind$??1NetBrowser@@QEAA@XZ 000000018001b818     NetClass.obj
 0001:0001a818       $unwind$__acrt_FlsGetValue 000000018001b818     libucrt:winapi_thunks.obj
 0001:0001a820       $unwind$ProcessPanelInputW 000000018001b820     Network.obj
 0001:0001a820       $unwind$ConfigureW         000000018001b820     NetCommon.obj
 0001:0001a820       $unwind$?CheckFavoriteItem@@YAHQEAU_NETRESOURCEW@@@Z 000000018001b820     NetFavorites.obj
 0001:0001a820       $unwind$__acrt_release_locale_ref 000000018001b820     libucrt:locale_refcounting.obj
 0001:0001a820       $unwind$__dcrt_uninitialize_environments_nolock 000000018001b820     libucrt:environment_initialization.obj
 0001:0001a820       $unwind$_isatty            000000018001b820     libucrt:isatty.obj
 0001:0001a820       $unwind$__acrt_initialize_command_line 000000018001b820     libucrt:argv_data.obj
 0001:0001a820       $unwind$__pctype_func      000000018001b820     libucrt:ctype.obj
 0001:0001a820       $unwind$?dllmain_crt_dispatch@@YAHQEAUHINSTANCE__@@KQEAX@Z 000000018001b820     LIBCMT:dll_dllmain.obj
 0001:0001a820       $unwind$abort              000000018001b820     libucrt:abort.obj
 0001:0001a820       $unwind$_get_osfhandle     000000018001b820     libucrt:osfinfo.obj
 0001:0001a820       $unwind$__doserrno         000000018001b820     libucrt:errno.obj
 0001:0001a820       $unwind$__acrt_DownlevelLocaleNameToLCID 000000018001b820     libucrt:lcidtoname_downlevel.obj
 0001:0001a820       $unwind$uninitialize_allocated_io_buffers 000000018001b820     libucrt:initialization.obj
 0001:0001a820       $unwind$__scrt_initialize_default_local_stdio_options 000000018001b820     LIBCMT:default_local_stdio_options.obj
 0001:0001a820       $unwind$__scrt_acquire_startup_lock 000000018001b820     LIBCMT:utility.obj
 0001:0001a820       $unwind$_msize_base        000000018001b820     libucrt:msize.obj
 0001:0001a820       $unwind$_fileno            000000018001b820     libucrt:fileno.obj
 0001:0001a820       $unwind$__scrt_dllmain_before_initialize_c 000000018001b820     LIBCMT:utility.obj
 0001:0001a820       $unwind$__acrt_initialize_multibyte 000000018001b820     libucrt:mbctype.obj
 0001:0001a820       $unwind$uninitialize_environment 000000018001b820     libucrt:initialization.obj
 0001:0001a820       $unwind$__scrt_dllmain_after_initialize_c 000000018001b820     LIBCMT:utility.obj
 0001:0001a820       $unwind$__scrt_dllmain_uninitialize_c 000000018001b820     LIBCMT:utility.obj
 0001:0001a820       $unwind$__scrt_dllmain_uninitialize_critical 000000018001b820     LIBCMT:utility.obj
 0001:0001a820       $unwind$initialize_c       000000018001b820     libucrt:initialization.obj
 0001:0001a820       $unwind$__scrt_dllmain_crt_thread_attach 000000018001b820     LIBCMT:utility.obj
 0001:0001a820       $unwind$__scrt_dllmain_crt_thread_detach 000000018001b820     LIBCMT:utility.obj
 0001:0001a820       $unwind$__acrt_initialize_ptd 000000018001b820     libucrt:per_thread_data.obj
 0001:0001a820       $unwind$__acrt_thread_detach 000000018001b820     libucrt:initialization.obj
 0001:0001a820       $unwind$__acrt_thread_attach 000000018001b820     libucrt:initialization.obj
 0001:0001a820       $unwind$DeleteFilesW       000000018001b820     Network.obj
 0001:0001a820       $unwind$__report_rangecheckfailure 000000018001b820     LIBCMT:gs_report.obj
 0001:0001a820       $unwind$__acrt_update_thread_multibyte_data 000000018001b820     libucrt:mbctype.obj
 0001:0001a820       $unwind$GetFindDataW       000000018001b820     Network.obj
 0001:0001a820       $unwind$__vcrt_initialize  000000018001b820     libvcruntime:initialization.obj
 0001:0001a820       $unwind$__vcrt_uninitialize 000000018001b820     libvcruntime:initialization.obj
 0001:0001a820       $unwind$__acrt_uninitialize_critical 000000018001b820     libucrt:initialization.obj
 0001:0001a820       $unwind$__vcrt_uninitialize_critical 000000018001b820     libvcruntime:initialization.obj
 0001:0001a820       $unwind$__vcrt_thread_attach 000000018001b820     libvcruntime:initialization.obj
 0001:0001a820       $unwind$__acrt_uninitialize 000000018001b820     libucrt:initialization.obj
 0001:0001a820       $unwind$_set_errno_from_matherr 000000018001b820     libucrt:fpexcept.obj
 0001:0001a820       $unwind$ProcessPanelEventW 000000018001b820     Network.obj
 0001:0001a820       $unwind$_invoke_watson     000000018001b820     libucrt:invalid_parameter.obj
 0001:0001a820       $unwind$__vcrt_thread_detach 000000018001b820     libvcruntime:initialization.obj
 0001:0001a820       $unwind$__GSHandlerCheck   000000018001b820     LIBCMT:_gshandler_.obj
 0001:0001a820       $unwind$__vcrt_initialize_ptd 000000018001b820     libvcruntime:per_thread_data.obj
 0001:0001a820       $unwind$?initialize_multibyte@@YAHXZ 000000018001b820     libucrt:multibyte_initializer.obj
 0001:0001a820       $unwind$__vcrt_uninitialize_ptd 000000018001b820     libvcruntime:per_thread_data.obj
 0001:0001a820       $unwind$__dcrt_terminate_console_output 000000018001b820     libucrt:initcon.obj
 0001:0001a820       $unwind$GetGlobalInfoW     000000018001b820     Network.obj
 0001:0001a820       $unwind$__vcrt_freefls     000000018001b820     libvcruntime:per_thread_data.obj
 0001:0001a820       $unwind$??$uninitialize_environment_internal@D@@YAXAEAPEAPEAD@Z 000000018001b820     libucrt:environment_initialization.obj
 0001:0001a820       $unwind$??$uninitialize_environment_internal@_W@@YAXAEAPEAPEA_W@Z 000000018001b820     libucrt:environment_initialization.obj
 0001:0001a820       $unwind$__acrt_initialize_heap 000000018001b820     libucrt:heap_handle.obj
 0001:0001a820       $unwind$__acrt_uninitialize_ptd 000000018001b820     libucrt:per_thread_data.obj
 0001:0001a820       $unwind$_statfp            000000018001b820     libucrt:fpctrl.obj
 0001:0001a820       $unwind$_errno             000000018001b820     libucrt:errno.obj
 0001:0001a820       $unwind$SetDirectoryW      000000018001b820     Network.obj
 0001:0001a828       $unwind$OpenW              000000018001b828     Network.obj
 0001:0001a838       $chain$1$OpenW             000000018001b838     Network.obj
 0001:0001a850       $chain$3$OpenW             000000018001b850     Network.obj
 0001:0001a868       $chain$4$OpenW             000000018001b868     Network.obj
 0001:0001a878       $unwind$?Config@@YAHXZ     000000018001b878     NetCfg.obj
 0001:0001a888       $chain$2$?Config@@YAHXZ    000000018001b888     NetCfg.obj
 0001:0001a8a4       $chain$3$?Config@@YAHXZ    000000018001b8a4     NetCfg.obj
 0001:0001a8b8       $chain$4$?Config@@YAHXZ    000000018001b8b8     NetCfg.obj
 0001:0001a8c8       $chain$5$?Config@@YAHXZ    000000018001b8c8     NetCfg.obj
 0001:0001a8d8       $unwind$??_G?$DialogBuilderBase@UFarDialogItem@@@@MEAAPEAXI@Z 000000018001b8d8     NetCfg.obj
 0001:0001a8d8       $unwind$?SaveValue@PluginRadioButtonBinding@@UEAAXPEAUFarDialogItem@@H@Z 000000018001b8d8     NetCfg.obj
 0001:0001a8d8       $unwind$__acrt_execute_uninitializers 000000018001b8d8     libucrt:shared_initialization.obj
 0001:0001a8d8       $unwind$__acrt_getptd      000000018001b8d8     libucrt:per_thread_data.obj
 0001:0001a8d8       $unwind$?InitDialogItem@PluginDialogBuilder@@MEAAXPEAUFarDialogItem@@PEB_W@Z 000000018001b8d8     NetCfg.obj
 0001:0001a8d8       $unwind$strncpy_s          000000018001b8d8     libucrt:strncpy_s.obj
 0001:0001a8d8       $unwind$??$common_initialize_environment_nolock@D@@YAHXZ 000000018001b8d8     libucrt:environment_initialization.obj
 0001:0001a8d8       $unwind$__acrt_uninitialize_lowio 000000018001b8d8     libucrt:ioinit.obj
 0001:0001a8d8       $unwind$_realloc_base      000000018001b8d8     libucrt:realloc_base.obj
 0001:0001a8d8       $unwind$__acrt_errno_map_os_error 000000018001b8d8     libucrt:errno.obj
 0001:0001a8d8       $unwind$?GetRemoteName@NetBrowser@@AEAAXPEAU_NETRESOURCEW@@PEA_W@Z 000000018001b8d8     NetClass.obj
 0001:0001a8d8       $unwind$_initterm_e        000000018001b8d8     libucrt:initterm.obj
 0001:0001a8d8       $unwind$__acrt_getptd_noexit 000000018001b8d8     libucrt:per_thread_data.obj
 0001:0001a8d8       $unwind$??0_LocaleUpdate@@QEAA@QEAU__crt_locale_pointers@@@Z 000000018001b8d8     libucrt:output.obj
 0001:0001a8d8       $unwind$GetPluginInfoW     000000018001b8d8     NetCfg.obj
 0001:0001a8d8       $unwind$??_Gexception@std@@UEAAPEAXI@Z 000000018001b8d8     LIBCMT:throw_bad_alloc.obj
 0001:0001a8d8       $unwind$__vcrt_FlsSetValue 000000018001b8d8     libvcruntime:winapi_downlevel.obj
 0001:0001a8d8       $unwind$_close_nolock      000000018001b8d8     libucrt:close.obj
 0001:0001a8d8       $unwind$?replace_current_thread_locale_nolock@@YAXQEAU__acrt_ptd@@QEAU__crt_locale_data@@@Z 000000018001b8d8     libucrt:per_thread_data.obj
 0001:0001a8d8       $unwind$??_Gbad_alloc@std@@UEAAPEAXI@Z 000000018001b8d8     LIBCMT:throw_bad_alloc.obj
 0001:0001a8d8       $unwind$?Push@NetResourceList@@QEAAXAEAU_NETRESOURCEW@@@Z 000000018001b8d8     NetClass.obj
 0001:0001a8d8       $unwind$??_Gbad_array_new_length@std@@UEAAPEAXI@Z 000000018001b8d8     LIBCMT:throw_bad_alloc.obj
 0001:0001a8d8       $unwind$?CopyNetResource@NetResourceList@@SAXAEAU_NETRESOURCEW@@AEBU2@@Z 000000018001b8d8     NetClass.obj
 0001:0001a8d8       $unwind$??_GPluginDialogBuilder@@UEAAPEAXI@Z 000000018001b8d8     NetCfg.obj
 0001:0001a8d8       $unwind$_fclose_nolock     000000018001b8d8     libucrt:fclose.obj
 0001:0001a8d8       $unwind$_updatetlocinfoEx_nolock 000000018001b8d8     libucrt:locale_refcounting.obj
 0001:0001a8d8       $unwind$_RTC_Initialize    000000018001b8d8     LIBCMT:_initsect_.obj
 0001:0001a8d8       $unwind$__acrt_FlsSetValue 000000018001b8d8     libucrt:winapi_thunks.obj
 0001:0001a8d8       $unwind$_RTC_Terminate     000000018001b8d8     LIBCMT:_initsect_.obj
 0001:0001a8d8       $unwind$?CreateRadioButtonBinding@PluginDialogBuilder@@MEAAPEAU?$DialogItemBinding@UFarDialogItem@@@@PEAH@Z 000000018001b8d8     NetCfg.obj
 0001:0001a8d8       $unwind$__acrt_LocaleNameToLCID 000000018001b8d8     libucrt:winapi_thunks.obj
 0001:0001a8e4       $unwind$?AddUIntEditField@PluginDialogBuilder@@UEAAPEAUFarDialogItem@@PEAIH@Z 000000018001b8e4     NetCfg.obj
 0001:0001a8e4       $unwind$?AddIntEditField@PluginDialogBuilder@@UEAAPEAUFarDialogItem@@PEAHH@Z 000000018001b8e4     NetCfg.obj
 0001:0001a8e4       $unwind$?AddDialogItem@?$DialogBuilderBase@UFarDialogItem@@@@IEAAPEAUFarDialogItem@@W4FARDIALOGITEMTYPES@@PEB_W@Z 000000018001b8e4     NetCfg.obj
 0001:0001a8fc       $unwind$?UpdateBorderSize@?$DialogBuilderBase@UFarDialogItem@@@@IEAAXXZ 000000018001b8fc     NetCfg.obj
 0001:0001a90c       $chain$1$?UpdateBorderSize@?$DialogBuilderBase@UFarDialogItem@@@@IEAAXXZ 000000018001b90c     NetCfg.obj
 0001:0001a924       $chain$2$?UpdateBorderSize@?$DialogBuilderBase@UFarDialogItem@@@@IEAAXXZ 000000018001b924     NetCfg.obj
 0001:0001a938       $chain$3$?UpdateBorderSize@?$DialogBuilderBase@UFarDialogItem@@@@IEAAXXZ 000000018001b938     NetCfg.obj
 0001:0001a948       $chain$4$?UpdateBorderSize@?$DialogBuilderBase@UFarDialogItem@@@@IEAAXXZ 000000018001b948     NetCfg.obj
 0001:0001a958       $unwind$??1?$DialogBuilderBase@UFarDialogItem@@@@MEAA@XZ 000000018001b958     NetCfg.obj
 0001:0001a964       $chain$0$??1?$DialogBuilderBase@UFarDialogItem@@@@MEAA@XZ 000000018001b964     NetCfg.obj
 0001:0001a978       $chain$1$??1?$DialogBuilderBase@UFarDialogItem@@@@MEAA@XZ 000000018001b978     NetCfg.obj
 0001:0001a988       $unwind$?AddRadioButtons@?$DialogBuilderBase@UFarDialogItem@@@@QEAAPEAUFarDialogItem@@PEAHHQEBH_N@Z 000000018001b988     NetCfg.obj
 0001:0001a998       $chain$3$?AddRadioButtons@?$DialogBuilderBase@UFarDialogItem@@@@QEAAPEAUFarDialogItem@@PEAHHQEBH_N@Z 000000018001b998     NetCfg.obj
 0001:0001a9b8       $chain$4$?AddRadioButtons@?$DialogBuilderBase@UFarDialogItem@@@@QEAAPEAUFarDialogItem@@PEAHHQEBH_N@Z 000000018001b9b8     NetCfg.obj
 0001:0001a9c8       $unwind$?AddButtons@?$DialogBuilderBase@UFarDialogItem@@@@QEAAXHPEBHHH@Z 000000018001b9c8     NetCfg.obj
 0001:0001a9d4       $chain$4$?AddButtons@?$DialogBuilderBase@UFarDialogItem@@@@QEAAXHPEBHHH@Z 000000018001b9d4     NetCfg.obj
 0001:0001a9f8       $chain$5$?AddButtons@?$DialogBuilderBase@UFarDialogItem@@@@QEAAXHPEBHHH@Z 000000018001b9f8     NetCfg.obj
 0001:0001aa08       $unwind$?ShowDialog@?$DialogBuilderBase@UFarDialogItem@@@@QEAA_NXZ 000000018001ba08     NetCfg.obj
 0001:0001aa14       $chain$1$?ShowDialog@?$DialogBuilderBase@UFarDialogItem@@@@QEAA_NXZ 000000018001ba14     NetCfg.obj
 0001:0001aa2c       $chain$3$?ShowDialog@?$DialogBuilderBase@UFarDialogItem@@@@QEAA_NXZ 000000018001ba2c     NetCfg.obj
 0001:0001aa44       $chain$4$?ShowDialog@?$DialogBuilderBase@UFarDialogItem@@@@QEAA_NXZ 000000018001ba44     NetCfg.obj
 0001:0001aa54       $chain$5$?ShowDialog@?$DialogBuilderBase@UFarDialogItem@@@@QEAA_NXZ 000000018001ba54     NetCfg.obj
 0001:0001aa64       $unwind$?DoShowDialog@PluginDialogBuilder@@MEAA_JXZ 000000018001ba64     NetCfg.obj
 0001:0001aa70       $unwind$?free_crt_array_internal@@YAXQEAPEBX_K@Z 000000018001ba70     libucrt:inittime.obj
 0001:0001aa70       $unwind$_DllMainCRTStartup 000000018001ba70     LIBCMT:dll_dllmain.obj
 0001:0001aa70       $unwind$__acrt_stdio_flush_nolock 000000018001ba70     libucrt:fflush.obj
 0001:0001aa70       $unwind$__vcrt_getptd_noexit 000000018001ba70     libvcruntime:per_thread_data.obj
 0001:0001aa70       $unwind$?CreateCheckBoxBinding@PluginDialogBuilder@@MEAAPEAU?$DialogItemBinding@UFarDialogItem@@@@PEAHH@Z 000000018001ba70     NetCfg.obj
 0001:0001aa70       $unwind$??$common_lseek_nolock@_J@@YA_JH_JH@Z 000000018001ba70     libucrt:lseek.obj
 0001:0001aa70       $unwind$__acrt_InitializeCriticalSectionEx 000000018001ba70     libucrt:winapi_thunks.obj
 0001:0001aa70       $unwind$_exception_enabled 000000018001ba70     libucrt:libm_error.obj
 0001:0001aa70       $unwind$__acrt_execute_initializers 000000018001ba70     libucrt:shared_initialization.obj
 0001:0001aa70       $unwind$__vcrt_InitializeCriticalSectionEx 000000018001ba70     libvcruntime:winapi_downlevel.obj
 0001:0001aa80       $unwind$??4NetResourceList@@QEAAAEAV0@AEAV0@@Z 000000018001ba80     NetClass.obj
 0001:0001aa90       $chain$0$??4NetResourceList@@QEAAAEAV0@AEAV0@@Z 000000018001ba90     NetClass.obj
 0001:0001aaa4       $chain$1$??4NetResourceList@@QEAAAEAV0@AEAV0@@Z 000000018001baa4     NetClass.obj
 0001:0001aab4       $unwind$?Clear@NetResourceList@@QEAAXXZ 000000018001bab4     NetClass.obj
 0001:0001aac0       $chain$0$?Clear@NetResourceList@@QEAAXXZ 000000018001bac0     NetClass.obj
 0001:0001aad4       $chain$1$?Clear@NetResourceList@@QEAAXXZ 000000018001bad4     NetClass.obj
 0001:0001aae4       $unwind$?Enumerate@NetResourceList@@QEAAHKKKPEAU_NETRESOURCEW@@@Z 000000018001bae4     NetClass.obj
 0001:0001ab00       $unwind$?RemoveItems@NetBrowser@@AEAAXXZ 000000018001bb00     NetClass.obj
 0001:0001ab0c       $chain$1$?RemoveItems@NetBrowser@@AEAAXXZ 000000018001bb0c     NetClass.obj
 0001:0001ab24       $chain$2$?RemoveItems@NetBrowser@@AEAAXXZ 000000018001bb24     NetClass.obj
 0001:0001ab38       $chain$4$?RemoveItems@NetBrowser@@AEAAXXZ 000000018001bb38     NetClass.obj
 0001:0001ab50       $chain$5$?RemoveItems@NetBrowser@@AEAAXXZ 000000018001bb50     NetClass.obj
 0001:0001ab60       $chain$6$?RemoveItems@NetBrowser@@AEAAXXZ 000000018001bb60     NetClass.obj
 0001:0001ab70       $chain$7$?RemoveItems@NetBrowser@@AEAAXXZ 000000018001bb70     NetClass.obj
 0001:0001ab80       $unwind$?DisconnectFromServer@NetBrowser@@CAXPEAU_NETRESOURCEW@@@Z 000000018001bb80     NetClass.obj
 0001:0001ab88       $chain$3$?DisconnectFromServer@NetBrowser@@CAXPEAU_NETRESOURCEW@@@Z 000000018001bb88     NetClass.obj
 0001:0001aba8       $chain$4$?DisconnectFromServer@NetBrowser@@CAXPEAU_NETRESOURCEW@@@Z 000000018001bba8     NetClass.obj
 0001:0001abbc       $chain$5$?DisconnectFromServer@NetBrowser@@CAXPEAU_NETRESOURCEW@@@Z 000000018001bbbc     NetClass.obj
 0001:0001abd0       $chain$6$?DisconnectFromServer@NetBrowser@@CAXPEAU_NETRESOURCEW@@@Z 000000018001bbd0     NetClass.obj
 0001:0001abe0       $chain$7$?DisconnectFromServer@NetBrowser@@CAXPEAU_NETRESOURCEW@@@Z 000000018001bbe0     NetClass.obj
 0001:0001abf0       $chain$8$?DisconnectFromServer@NetBrowser@@CAXPEAU_NETRESOURCEW@@@Z 000000018001bbf0     NetClass.obj
 0001:0001ac00       $unwind$?ChangeToDirectory@NetBrowser@@AEAAHPEB_W_K_N@Z 000000018001bc00     NetClass.obj
 0001:0001ac20       $unwind$?CancelConnection@NetBrowser@@AEAAHPEB_W@Z 000000018001bc20     NetClass.obj
 0001:0001ac3c       $unwind$?ConfirmCancelConnection@NetBrowser@@AEAAHPEA_W0AEAH@Z 000000018001bc3c     NetClass.obj
 0001:0001ac5c       $unwind$?GetLocalName@NetBrowser@@AEAAXPEA_W0@Z 000000018001bc5c     NetClass.obj
 0001:0001ac68       $chain$1$?GetLocalName@NetBrowser@@AEAAXPEA_W0@Z 000000018001bc68     NetClass.obj
 0001:0001ac80       $chain$2$?GetLocalName@NetBrowser@@AEAAXPEA_W0@Z 000000018001bc80     NetClass.obj
 0001:0001ac94       $chain$3$?GetLocalName@NetBrowser@@AEAAXPEA_W0@Z 000000018001bc94     NetClass.obj
 0001:0001aca4       $chain$4$?GetLocalName@NetBrowser@@AEAAXPEA_W0@Z 000000018001bca4     NetClass.obj
 0001:0001acb4       $unwind$?GetNameAndPassword@NetBrowser@@CAHPEAU__NameAndPassInfo@@@Z 000000018001bcb4     NetClass.obj
 0001:0001acd4       $unwind$?EnumerateNetList@NetBrowser@@AEAAHXZ 000000018001bcd4     NetClass.obj
 0001:0001ace0       $unwind$?GetHiddenShares@NetBrowser@@AEAAXXZ 000000018001bce0     NetClass.obj
 0001:0001acec       $chain$4$?GetHiddenShares@NetBrowser@@AEAAXXZ 000000018001bcec     NetClass.obj
 0001:0001ad10       $chain$5$?GetHiddenShares@NetBrowser@@AEAAXXZ 000000018001bd10     NetClass.obj
 0001:0001ad20       $chain$6$?GetHiddenShares@NetBrowser@@AEAAXXZ 000000018001bd20     NetClass.obj
 0001:0001ad44       $unwind$?IsReadable@NetBrowser@@AEAAHPEB_W@Z 000000018001bd44     NetClass.obj
 0001:0001ad54       $unwind$?GotoComputer@NetBrowser@@AEAAHPEB_W@Z 000000018001bd54     NetClass.obj
 0001:0001ad70       $unwind$?MapNetworkDrive@NetBrowser@@AEAAHPEB_WHH@Z 000000018001bd70     NetClass.obj
 0001:0001ad90       $unwind$?AskMapDrive@NetBrowser@@AEAAHPEA_WAEAH@Z 000000018001bd90     NetClass.obj
 0001:0001adac       $unwind$?FileNames2Clipboard@NetBrowser@@AEAAXH@Z 000000018001bdac     NetClass.obj
 0001:0001adc4       $chain$1$?FileNames2Clipboard@NetBrowser@@AEAAXH@Z 000000018001bdc4     NetClass.obj
 0001:0001addc       $chain$2$?FileNames2Clipboard@NetBrowser@@AEAAXH@Z 000000018001bddc     NetClass.obj
 0001:0001adec       $unwind$??0NetBrowser@@QEAA@XZ 000000018001bdec     NetClass.obj
 0001:0001ae04       $unwind$?GetFindData@NetBrowser@@QEAAHPEAPEAUPluginPanelItem@@PEA_K_K@Z 000000018001be04     NetClass.obj
 0001:0001ae1c       $chain$2$?GetFindData@NetBrowser@@QEAAHPEAPEAUPluginPanelItem@@PEA_K_K@Z 000000018001be1c     NetClass.obj
 0001:0001ae30       $chain$3$?GetFindData@NetBrowser@@QEAAHPEAPEAUPluginPanelItem@@PEA_K_K@Z 000000018001be30     NetClass.obj
 0001:0001ae44       $chain$4$?GetFindData@NetBrowser@@QEAAHPEAPEAUPluginPanelItem@@PEA_K_K@Z 000000018001be44     NetClass.obj
 0001:0001ae54       $chain$5$?GetFindData@NetBrowser@@QEAAHPEAPEAUPluginPanelItem@@PEA_K_K@Z 000000018001be54     NetClass.obj
 0001:0001ae64       $unwind$?FreeFindData@NetBrowser@@QEAAXPEAUPluginPanelItem@@H@Z 000000018001be64     NetClass.obj
 0001:0001ae70       $chain$0$?FreeFindData@NetBrowser@@QEAAXPEAUPluginPanelItem@@H@Z 000000018001be70     NetClass.obj
 0001:0001ae84       $chain$1$?FreeFindData@NetBrowser@@QEAAXPEAUPluginPanelItem@@H@Z 000000018001be84     NetClass.obj
 0001:0001ae94       $unwind$?GetOpenPanelInfo@NetBrowser@@QEAAXPEAUOpenPanelInfo@@@Z 000000018001be94     NetClass.obj
 0001:0001aeac       $unwind$?SetDirectory@NetBrowser@@QEAAHPEB_W_K@Z 000000018001beac     NetClass.obj
 0001:0001aec0       $chain$1$?SetDirectory@NetBrowser@@QEAAHPEB_W_K@Z 000000018001bec0     NetClass.obj
 0001:0001aed8       $chain$2$?SetDirectory@NetBrowser@@QEAAHPEB_W_K@Z 000000018001bed8     NetClass.obj
 0001:0001aee8       $unwind$?DeleteFiles@NetBrowser@@QEAAHPEAUPluginPanelItem@@H_K@Z 000000018001bee8     NetClass.obj
 0001:0001aef8       $chain$0$?DeleteFiles@NetBrowser@@QEAAHPEAUPluginPanelItem@@H_K@Z 000000018001bef8     NetClass.obj
 0001:0001af0c       $chain$1$?DeleteFiles@NetBrowser@@QEAAHPEAUPluginPanelItem@@H_K@Z 000000018001bf0c     NetClass.obj
 0001:0001af20       $chain$2$?DeleteFiles@NetBrowser@@QEAAHPEAUPluginPanelItem@@H_K@Z 000000018001bf20     NetClass.obj
 0001:0001af30       $chain$4$?DeleteFiles@NetBrowser@@QEAAHPEAUPluginPanelItem@@H_K@Z 000000018001bf30     NetClass.obj
 0001:0001af44       $unwind$?ProcessKey@NetBrowser@@QEAAHPEBU_INPUT_RECORD@@@Z 000000018001bf44     NetClass.obj
 0001:0001af58       $chain$0$?ProcessKey@NetBrowser@@QEAAHPEBU_INPUT_RECORD@@@Z 000000018001bf58     NetClass.obj
 0001:0001af6c       $chain$1$?ProcessKey@NetBrowser@@QEAAHPEBU_INPUT_RECORD@@@Z 000000018001bf6c     NetClass.obj
 0001:0001af80       $chain$2$?ProcessKey@NetBrowser@@QEAAHPEBU_INPUT_RECORD@@@Z 000000018001bf80     NetClass.obj
 0001:0001af90       $chain$3$?ProcessKey@NetBrowser@@QEAAHPEBU_INPUT_RECORD@@@Z 000000018001bf90     NetClass.obj
 0001:0001afa0       $unwind$?ProcessEvent@NetBrowser@@QEAAH_JPEAX@Z 000000018001bfa0     NetClass.obj
 0001:0001afac       $chain$1$?ProcessEvent@NetBrowser@@QEAAH_JPEAX@Z 000000018001bfac     NetClass.obj
 0001:0001afc4       $chain$2$?ProcessEvent@NetBrowser@@QEAAH_JPEAX@Z 000000018001bfc4     NetClass.obj
 0001:0001afd8       $chain$3$?ProcessEvent@NetBrowser@@QEAAH_JPEAX@Z 000000018001bfd8     NetClass.obj
 0001:0001afe8       $chain$4$?ProcessEvent@NetBrowser@@QEAAH_JPEAX@Z 000000018001bfe8     NetClass.obj
 0001:0001aff8       $unwind$?SetOpenFromFilePanel@NetBrowser@@QEAAHPEA_W@Z 000000018001bff8     NetClass.obj
 0001:0001aff8       $unwind$??0TSaveScreen@@QEAA@XZ 000000018001bff8     NetMix.obj
 0001:0001b000       $unwind$?GotoLocalNetwork@NetBrowser@@QEAAXXZ 000000018001c000     NetClass.obj
 0001:0001b00c       $chain$1$?GotoLocalNetwork@NetBrowser@@QEAAXXZ 000000018001c00c     NetClass.obj
 0001:0001b024       $chain$2$?GotoLocalNetwork@NetBrowser@@QEAAXXZ 000000018001c024     NetClass.obj
 0001:0001b034       $unwind$?EditFavorites@NetBrowser@@QEAAHXZ 000000018001c034     NetClass.obj
 0001:0001b050       $chain$4$?EditFavorites@NetBrowser@@QEAAHXZ 000000018001c050     NetClass.obj
 0001:0001b068       $chain$5$?EditFavorites@NetBrowser@@QEAAHXZ 000000018001c068     NetClass.obj
 0001:0001b078       $unwind$?AddConnectionExplicit@NetBrowser@@SAHPEAU_NETRESOURCEW@@H@Z 000000018001c078     NetClass.obj
 0001:0001b08c       $unwind$?AddConnectionWithLogon@NetBrowser@@SAHPEAU_NETRESOURCEW@@PEA_W1H@Z 000000018001c08c     NetClass.obj
 0001:0001b0a8       $unwind$?AddConnectionFromFavorites@NetBrowser@@SAHPEAU_NETRESOURCEW@@H@Z 000000018001c0a8     NetClass.obj
 0001:0001b0b8       $unwind$?GetResourceInfo@NetBrowser@@SAHPEA_WPEAU_NETRESOURCEW@@@Z 000000018001c0b8     NetClass.obj
 0001:0001b0c8       $unwind$?GetResourceParent@NetBrowser@@SAHAEAU_NETRESOURCEW@@PEAU2@@Z 000000018001c0c8     NetClass.obj
 0001:0001b0e0       $unwind$?IsResourceReadable@NetBrowser@@SAHAEAU_NETRESOURCEW@@@Z 000000018001c0e0     NetClass.obj
 0001:0001b0e8       $unwind$?Replace@SimpleString@@QEAAAEAV1@_K0PEB_W0@Z 000000018001c0e8     NetClass.obj
 0001:0001b0f8       $chain$1$?Replace@SimpleString@@QEAAAEAV1@_K0PEB_W0@Z 000000018001c0f8     NetClass.obj
 0001:0001b110       $chain$2$?Replace@SimpleString@@QEAAAEAV1@_K0PEB_W0@Z 000000018001c110     NetClass.obj
 0001:0001b124       $chain$3$?Replace@SimpleString@@QEAAAEAV1@_K0PEB_W0@Z 000000018001c124     NetClass.obj
 0001:0001b134       $chain$4$?Replace@SimpleString@@QEAAAEAV1@_K0PEB_W0@Z 000000018001c134     NetClass.obj
 0001:0001b144       $unwind$SetStartupInfoW    000000018001c144     NetCommon.obj
 0001:0001b158       $unwind$?DlgCreateFolder@@YAHPEA_WH@Z 000000018001c158     NetCommon.obj
 0001:0001b160       $unwind$?GetFavorites@@YAHPEAU_NETRESOURCEW@@PEAVNetResourceList@@@Z 000000018001c160     NetFavorites.obj
 0001:0001b16c       $unwind$?GetFavoritesParent@@YAHAEAU_NETRESOURCEW@@PEAU1@@Z 000000018001c16c     NetFavorites.obj
 0001:0001b17c       $chain$0$?GetFavoritesParent@@YAHAEAU_NETRESOURCEW@@PEAU1@@Z 000000018001c17c     NetFavorites.obj
 0001:0001b190       $chain$1$?GetFavoritesParent@@YAHAEAU_NETRESOURCEW@@PEAU1@@Z 000000018001c190     NetFavorites.obj
 0001:0001b1a0       $unwind$?dllmain_crt_process_attach@@YAHQEAUHINSTANCE__@@QEAX@Z 000000018001c1a0     LIBCMT:dll_dllmain.obj
 0001:0001b1dc       $unwind$?fin$0@?0??update_thread_multibyte_data_internal@@YAPEAU__crt_multibyte_data@@QEAU__acrt_ptd@@QEAPEAU1@@Z@4HA 000000018001c1dc     libucrt:mbctype.obj
 0001:0001b1dc       $unwind$__DestructExceptionObject$filt$0 000000018001c1dc     libvcruntime:ehhelpers.obj
 0001:0001b1dc       $unwind$?fin$0@?0???$?RV<lambda_0ae27a3a962d80f24befdcbee591983d>@@AEAV<lambda_8d0ee55de4b1038c4002e0adecdf1839>@@V<lambda_dc504788e8f1664fe9b84e20bfb512f2>@@@?$__crt_seh_guarded_call@X@@QEAAX$$QEAV<lambda_0ae27a3a962d80f24befdcbee591983d>@@AEAV<lambda_8d0ee55de4b1038c4002e0adecdf1839>@@$$QEAV<lambda_dc504788e8f1664fe9b84e20bfb512f2>@@@Z@4HA 000000018001c1dc     libucrt:per_thread_data.obj
 0001:0001b1dc       $unwind$?fin$0@?0???$?RV<lambda_7777bce6b2f8c936911f934f8298dc43>@@AEAV<lambda_f03950bc5685219e0bcd2087efbe011e>@@V<lambda_3883c3dff614d5e0c5f61bb1ac94921c>@@@?$__crt_seh_guarded_call@H@@QEAAH$$QEAV<lambda_7777bce6b2f8c936911f934f8298dc43>@@AEAV<lambda_f03950bc5685219e0bcd2087efbe011e>@@$$QEAV<lambda_3883c3dff614d5e0c5f61bb1ac94921c>@@@Z@4HA 000000018001c1dc     libucrt:onexit.obj
 0001:0001b1dc       $unwind$?fin$0@?0???$?RV<lambda_886d6c58226a84441f68b9f2b8217b83>@@AEAV<lambda_ab61a845afdef5b7c387490eaf3616ee>@@V<lambda_f7f22ab5edc0698d5f6905b0d3f44752>@@@?$__crt_seh_guarded_call@X@@QEAAX$$QEAV<lambda_886d6c58226a84441f68b9f2b8217b83>@@AEAV<lambda_ab61a845afdef5b7c387490eaf3616ee>@@$$QEAV<lambda_f7f22ab5edc0698d5f6905b0d3f44752>@@@Z@4HA 000000018001c1dc     libucrt:fflush.obj
 0001:0001b1dc       $unwind$?filt$0@?0???R<lambda_6e4b09c48022b2350581041d5f6b0c4c>@@QEBA@XZ@4HA 000000018001c1dc     libucrt:exit.obj
 0001:0001b1dc       $unwind$?fin$0@?0???$?RV<lambda_aa87e3671a710a21b5dc78c0bdf72e11>@@AEAV<lambda_92619d2358a28f41a33ba319515a20b9>@@V<lambda_6992ecaafeb10aed2b74cb1fae11a551>@@@?$__crt_seh_guarded_call@X@@QEAAX$$QEAV<lambda_aa87e3671a710a21b5dc78c0bdf72e11>@@AEAV<lambda_92619d2358a28f41a33ba319515a20b9>@@$$QEAV<lambda_6992ecaafeb10aed2b74cb1fae11a551>@@@Z@4HA 000000018001c1dc     libucrt:per_thread_data.obj
 0001:0001b1dc       $unwind$?fin$0@?0???$?RV<lambda_842d9ff0dc9ef11c61343bbaebe7f885>@@AEAV<lambda_c5860995281e5c4ce005b3de8f5874ee>@@V<lambda_d90129c13df834fdcbf8d2b88dafcf2d>@@@?$__crt_seh_guarded_call@X@@QEAAX$$QEAV<lambda_842d9ff0dc9ef11c61343bbaebe7f885>@@AEAV<lambda_c5860995281e5c4ce005b3de8f5874ee>@@$$QEAV<lambda_d90129c13df834fdcbf8d2b88dafcf2d>@@@Z@4HA 000000018001c1dc     libucrt:fflush.obj
 0001:0001b1dc       $unwind$?fin$0@?0???$?RV<lambda_d80eeec6fff315bfe5c115232f3240e3>@@AEAV<lambda_6e4b09c48022b2350581041d5f6b0c4c>@@V<lambda_2358e3775559c9db80273638284d5e45>@@@?$__crt_seh_guarded_call@X@@QEAAX$$QEAV<lambda_d80eeec6fff315bfe5c115232f3240e3>@@AEAV<lambda_6e4b09c48022b2350581041d5f6b0c4c>@@$$QEAV<lambda_2358e3775559c9db80273638284d5e45>@@@Z@4HA 000000018001c1dc     libucrt:exit.obj
 0001:0001b1dc       $unwind$?fin$0@?0???$?RV<lambda_410d79af7f07d98d83a3f525b3859a53>@@AEAV<lambda_3e16ef9562a7dcce91392c22ab16ea36>@@V<lambda_38119f0e861e05405d8a144b9b982f0a>@@@?$__crt_seh_guarded_call@X@@QEAAX$$QEAV<lambda_410d79af7f07d98d83a3f525b3859a53>@@AEAV<lambda_3e16ef9562a7dcce91392c22ab16ea36>@@$$QEAV<lambda_38119f0e861e05405d8a144b9b982f0a>@@@Z@4HA 000000018001c1dc     libucrt:wsetlocale.obj
 0001:0001b1dc       $unwind$?fin$0@?0???$?RV<lambda_f2e299630e499de9f9a165e60fcd3db5>@@AEAV<lambda_2ae9d31cdba2644fcbeaf08da7c24588>@@V<lambda_40d01ff24d0e7b3814fdbdcee8eab3c7>@@@?$__crt_seh_guarded_call@X@@QEAAX$$QEAV<lambda_f2e299630e499de9f9a165e60fcd3db5>@@AEAV<lambda_2ae9d31cdba2644fcbeaf08da7c24588>@@$$QEAV<lambda_40d01ff24d0e7b3814fdbdcee8eab3c7>@@@Z@4HA 000000018001c1dc     libucrt:per_thread_data.obj
 0001:0001b1dc       $unwind$_fcloseall$fin$0   000000018001c1dc     libucrt:closeall.obj
 0001:0001b1dc       $unwind$?fin$0@?0???$?RV<lambda_efdfa57d1f175319df784efa44bb7b81>@@AEAV<lambda_5f0a4c1567f8adc6734073e5d1e1b35c>@@V<lambda_2e8a7d3640ea6ccb4c2413664c2db6fd>@@@?$__crt_seh_guarded_call@X@@QEAAX$$QEAV<lambda_efdfa57d1f175319df784efa44bb7b81>@@AEAV<lambda_5f0a4c1567f8adc6734073e5d1e1b35c>@@$$QEAV<lambda_2e8a7d3640ea6ccb4c2413664c2db6fd>@@@Z@4HA 000000018001c1dc     libucrt:mbctype.obj
 0001:0001b1dc       $unwind$raise$fin$0        000000018001c1dc     libucrt:signal.obj
 0001:0001b1dc       $unwind$?fin$0@?0???$?RV<lambda_2d41944a1d46af3157314b8a01080d33>@@AEAV<lambda_8f455de75cd7d7f24b4096f044d8b9e6>@@V<lambda_aa500f224e6afead328df44964fe2772>@@@?$__crt_seh_guarded_call@X@@QEAAX$$QEAV<lambda_2d41944a1d46af3157314b8a01080d33>@@AEAV<lambda_8f455de75cd7d7f24b4096f044d8b9e6>@@$$QEAV<lambda_aa500f224e6afead328df44964fe2772>@@@Z@4HA 000000018001c1dc     libucrt:per_thread_data.obj
 0001:0001b1dc       $unwind$fclose$fin$0       000000018001c1dc     libucrt:fclose.obj
 0001:0001b1dc       $unwind$?fin$0@?0???$?RV<lambda_751a882b2c74d4b022dec766aa51a29a>@@AEAV<lambda_628dfdc04ba53c8bfc02c9951375f3f5>@@V<lambda_f6c7be5f7998530c34de24c7437d6b54>@@@?$__crt_seh_guarded_call@H@@QEAAH$$QEAV<lambda_751a882b2c74d4b022dec766aa51a29a>@@AEAV<lambda_628dfdc04ba53c8bfc02c9951375f3f5>@@$$QEAV<lambda_f6c7be5f7998530c34de24c7437d6b54>@@@Z@4HA 000000018001c1dc     libucrt:close.obj
 0001:0001b1dc       $unwind$_ctrlfp$filt$0     000000018001c1dc     libucrt:fpctrl.obj
 0001:0001b1dc       $unwind$_write$fin$0       000000018001c1dc     libucrt:write.obj
 0001:0001b1dc       $unwind$_IsNonwritableInCurrentImage$filt$0 000000018001c1dc     LIBCMT:pesect.obj
 0001:0001b1dc       $unwind$?fin$0@?0???$?RV<lambda_450d765d439847d4c735a33c368b5fc0>@@AEAV<lambda_44731a7d0e6d81c3e6aa82d741081786>@@V<lambda_601a2a7da3b7a96e9554ac7215c4b07c>@@@?$__crt_seh_guarded_call@P6AXH@Z@@QEAAP6AXH@Z$$QEAV<lambda_450d765d439847d4c735a33c368b5fc0>@@AEAV<lambda_44731a7d0e6d81c3e6aa82d741081786>@@$$QEAV<lambda_601a2a7da3b7a96e9554ac7215c4b07c>@@@Z@4HA 000000018001c1dc     libucrt:signal.obj
 0001:0001b1dc       $unwind$?fin$0@?0???$?RV<lambda_a37b2b86f63e897a80ea819b0eb08c01>@@AEAV<lambda_38ce7e780aa69e748d6df282ebc68efe>@@V<lambda_99fb1378e971ab6e7edea83e3a7a83a2>@@@?$__crt_seh_guarded_call@H@@QEAAH$$QEAV<lambda_a37b2b86f63e897a80ea819b0eb08c01>@@AEAV<lambda_38ce7e780aa69e748d6df282ebc68efe>@@$$QEAV<lambda_99fb1378e971ab6e7edea83e3a7a83a2>@@@Z@4HA 000000018001c1dc     libucrt:commit.obj
 0001:0001b1dc       $unwind$?fin$0@?0??dllmain_crt_process_attach@@YAHQEAUHINSTANCE__@@QEAX@Z@4HA 000000018001c1dc     LIBCMT:dll_dllmain.obj
 0001:0001b1dc       $unwind$__acrt_lowio_ensure_fh_exists$fin$0 000000018001c1dc     libucrt:osfinfo.obj
 0001:0001b1dc       $unwind$__acrt_update_thread_locale_data$fin$0 000000018001c1dc     libucrt:locale_refcounting.obj
 0001:0001b1dc       $unwind$__acrt_initialize_lowio$fin$0 000000018001c1dc     libucrt:ioinit.obj
 0001:0001b1dc       $unwind$_query_new_handler$fin$0 000000018001c1dc     libucrt:new_handler.obj
 0001:0001b1dc       $unwind$?fin$0@?0??dllmain_crt_process_detach@@YAH_N@Z@4HA 000000018001c1dc     LIBCMT:dll_dllmain.obj
 0001:0001b1e4       $unwind$?dllmain_crt_process_detach@@YAH_N@Z 000000018001c1e4     LIBCMT:dll_dllmain.obj
 0001:0001b218       $unwind$?dllmain_dispatch@@YAHQEAUHINSTANCE__@@KQEAX@Z 000000018001c218     LIBCMT:dll_dllmain.obj
 0001:0001b240       $unwind$?filt$0@?0??dllmain_dispatch@@YAHQEAUHINSTANCE__@@KQEAX@Z@4HA 000000018001c240     LIBCMT:dll_dllmain.obj
 0001:0001b248       $unwind$_raise_exc         000000018001c248     libucrt:fpexcept.obj
 0001:0001b248       $unwind$?__scrt_throw_std_bad_alloc@@YAXXZ 000000018001c248     LIBCMT:throw_bad_alloc.obj
 0001:0001b248       $unwind$?__scrt_throw_std_bad_array_new_length@@YAXXZ 000000018001c248     LIBCMT:throw_bad_alloc.obj
 0001:0001b250       $unwind$__security_init_cookie 000000018001c250     LIBCMT:gs_support.obj
 0001:0001b25c       $unwind$__scrt_is_nonwritable_in_current_image 000000018001c25c     LIBCMT:utility.obj
 0001:0001b27c       $unwind$__scrt_is_nonwritable_in_current_image$filt$0 000000018001c27c     LIBCMT:utility.obj
 0001:0001b284       $unwind$__scrt_initialize_onexit_tables 000000018001c284     LIBCMT:utility.obj
 0001:0001b290       $unwind$__acrt_free_locale 000000018001c290     libucrt:locale_refcounting.obj
 0001:0001b290       $unwind$_recalloc_base     000000018001c290     libucrt:recalloc.obj
 0001:0001b290       $unwind$_seh_filter_exe    000000018001c290     libucrt:exception_filter.obj
 0001:0001b290       $unwind$?setSBCS@@YAXPEAU__crt_multibyte_data@@@Z 000000018001c290     libucrt:mbctype.obj
 0001:0001b290       $unwind$_initterm          000000018001c290     libucrt:initterm.obj
 0001:0001b290       $unwind$__acrt_lowio_create_handle_array 000000018001c290     libucrt:osfinfo.obj
 0001:0001b290       $unwind$__scrt_dllmain_exception_filter 000000018001c290     LIBCMT:utility.obj
 0001:0001b2a4       $unwind$__scrt_fastfail    000000018001c2a4     LIBCMT:utility_desktop.obj
 0001:0001b2b4       $unwind$__isa_available_init 000000018001c2b4     LIBCMT:_cpu_disp_.obj
 0001:0001b2c8       $xdatasym                  000000018001c2c8     LIBCMT:_guard_dispatch_.obj
 0001:0001b2cc       $unwind$wcschr             000000018001c2cc     libvcruntime:wcschr.obj
 0001:0001b2d8       $xdatasym                  000000018001c2d8     libvcruntime:memset.obj
 0001:0001b2dc       $unwind$wcsstr             000000018001c2dc     libvcruntime:wcsstr.obj
 0001:0001b2f0       $xdatasym                  000000018001c2f0     libvcruntime:memcpy.obj
 0001:0001b2f4       $unwind$__C_specific_handler 000000018001c2f4     libvcruntime:_riscchandler_.obj
 0001:0001b310       $unwind$_free_osfhnd       000000018001c310     libucrt:osfinfo.obj
 0001:0001b310       $unwind$__std_exception_copy 000000018001c310     libvcruntime:std_exception.obj
 0001:0001b310       $unwind$?initialize_stdio_handles_nolock@@YAXXZ 000000018001c310     libucrt:ioinit.obj
 0001:0001b324       $unwind$_CxxThrowException 000000018001c324     libvcruntime:throw.obj
 0001:0001b338       $xdatasym                  000000018001c338     libvcruntime:_jmpuwind_.obj
 0001:0001b34c       $unwind$__acrt_initialize_winapi_thunks 000000018001c34c     libucrt:winapi_thunks.obj
 0001:0001b34c       $unwind$__vcrt_initialize_winapi_thunks 000000018001c34c     libvcruntime:winapi_downlevel.obj
 0001:0001b354       $unwind$__vcrt_uninitialize_winapi_thunks 000000018001c354     libvcruntime:winapi_downlevel.obj
 0001:0001b35c       $unwind$?try_get_function@@YAPEAXW4function_id@?A0x391cf84c@@QEBDQEBW4module_id@2@2@Z 000000018001c35c     libucrt:winapi_thunks.obj
 0001:0001b35c       $unwind$?try_get_function@@YAPEAXW4function_id@?A0x89697e75@@QEBDQEBW4module_id@2@2@Z 000000018001c35c     libvcruntime:winapi_downlevel.obj
 0001:0001b35c       $unwind$??R<lambda_f03950bc5685219e0bcd2087efbe011e>@@QEBAHXZ 000000018001c35c     libucrt:onexit.obj
 0001:0001b378       $xdatasym                  000000018001c378     libvcruntime:handlers.obj
 0001:0001b380       $unwind$__DestructExceptionObject 000000018001c380     libvcruntime:ehhelpers.obj
 0001:0001b3a0       $unwind$_query_new_handler 000000018001c3a0     libucrt:new_handler.obj
 0001:0001b3c0       $unwind$?common_exit@@YAXHW4_crt_exit_cleanup_mode@@W4_crt_exit_return_mode@@@Z 000000018001c3c0     libucrt:exit.obj
 0001:0001b3cc       $unwind$??R<lambda_6e4b09c48022b2350581041d5f6b0c4c>@@QEBA@XZ 000000018001c3cc     libucrt:exit.obj
 0001:0001b3ec       $unwind$??$?RV<lambda_d80eeec6fff315bfe5c115232f3240e3>@@AEAV<lambda_6e4b09c48022b2350581041d5f6b0c4c>@@V<lambda_2358e3775559c9db80273638284d5e45>@@@?$__crt_seh_guarded_call@X@@QEAAX$$QEAV<lambda_d80eeec6fff315bfe5c115232f3240e3>@@AEAV<lambda_6e4b09c48022b2350581041d5f6b0c4c>@@$$QEAV<lambda_2358e3775559c9db80273638284d5e45>@@@Z 000000018001c3ec     libucrt:exit.obj
 0001:0001b410       $unwind$_configure_narrow_argv 000000018001c410     libucrt:argv_parsing.obj
 0001:0001b424       $unwind$??$parse_command_line@D@@YAXPEADPEAPEAD0PEA_K2@Z 000000018001c424     libucrt:argv_parsing.obj
 0001:0001b440       $unwind$??$free_environment@_W@@YAXQEAPEA_W@Z 000000018001c440     libucrt:environment_initialization.obj
 0001:0001b440       $unwind$??$free_environment@D@@YAXQEAPEAD@Z 000000018001c440     libucrt:environment_initialization.obj
 0001:0001b44c       $unwind$??$create_environment@D@@YAQEAPEADQEAD@Z 000000018001c44c     libucrt:environment_initialization.obj
 0001:0001b464       $unwind$_execute_onexit_table 000000018001c464     libucrt:onexit.obj
 0001:0001b46c       $unwind$??$?RV<lambda_7777bce6b2f8c936911f934f8298dc43>@@AEAV<lambda_f03950bc5685219e0bcd2087efbe011e>@@V<lambda_3883c3dff614d5e0c5f61bb1ac94921c>@@@?$__crt_seh_guarded_call@H@@QEAAH$$QEAV<lambda_7777bce6b2f8c936911f934f8298dc43>@@AEAV<lambda_f03950bc5685219e0bcd2087efbe011e>@@$$QEAV<lambda_3883c3dff614d5e0c5f61bb1ac94921c>@@@Z 000000018001c46c     libucrt:onexit.obj
 0001:0001b490       $unwind$terminate          000000018001c490     libucrt:terminate.obj
 0001:0001b4b0       $unwind$_invalid_parameter 000000018001c4b0     libucrt:invalid_parameter.obj
 0001:0001b4b0       $unwind$_wcsdup            000000018001c4b0     libucrt:wcsdup.obj
 0001:0001b4c8       $xdatasym                  000000018001c4c8     libucrt:strncmp.obj
 0001:0001b4cc       $unwind$__acrt_locale_free_lc_time_if_unreferenced 000000018001c4cc     libucrt:locale_refcounting.obj
 0001:0001b4cc       $unwind$?destroy_fls@@YAXPEAX@Z 000000018001c4cc     libucrt:per_thread_data.obj
 0001:0001b4cc       $unwind$__acrt_locale_free_numeric 000000018001c4cc     libucrt:initnum.obj
 0001:0001b4cc       $unwind$_free_base         000000018001c4cc     libucrt:free_base.obj
 0001:0001b4d4       $unwind$?construct_ptd_array@@YAXQEAU__acrt_ptd@@@Z 000000018001c4d4     libucrt:per_thread_data.obj
 0001:0001b4dc       $unwind$?destroy_ptd_array@@YAXQEAU__acrt_ptd@@@Z 000000018001c4dc     libucrt:per_thread_data.obj
 0001:0001b4e4       $unwind$??$?RV<lambda_0ae27a3a962d80f24befdcbee591983d>@@AEAV<lambda_8d0ee55de4b1038c4002e0adecdf1839>@@V<lambda_dc504788e8f1664fe9b84e20bfb512f2>@@@?$__crt_seh_guarded_call@X@@QEAAX$$QEAV<lambda_0ae27a3a962d80f24befdcbee591983d>@@AEAV<lambda_8d0ee55de4b1038c4002e0adecdf1839>@@$$QEAV<lambda_dc504788e8f1664fe9b84e20bfb512f2>@@@Z 000000018001c4e4     libucrt:per_thread_data.obj
 0001:0001b508       $unwind$??$?RV<lambda_aa87e3671a710a21b5dc78c0bdf72e11>@@AEAV<lambda_92619d2358a28f41a33ba319515a20b9>@@V<lambda_6992ecaafeb10aed2b74cb1fae11a551>@@@?$__crt_seh_guarded_call@X@@QEAAX$$QEAV<lambda_aa87e3671a710a21b5dc78c0bdf72e11>@@AEAV<lambda_92619d2358a28f41a33ba319515a20b9>@@$$QEAV<lambda_6992ecaafeb10aed2b74cb1fae11a551>@@@Z 000000018001c508     libucrt:per_thread_data.obj
 0001:0001b52c       $unwind$??$?RV<lambda_f2e299630e499de9f9a165e60fcd3db5>@@AEAV<lambda_2ae9d31cdba2644fcbeaf08da7c24588>@@V<lambda_40d01ff24d0e7b3814fdbdcee8eab3c7>@@@?$__crt_seh_guarded_call@X@@QEAAX$$QEAV<lambda_f2e299630e499de9f9a165e60fcd3db5>@@AEAV<lambda_2ae9d31cdba2644fcbeaf08da7c24588>@@$$QEAV<lambda_40d01ff24d0e7b3814fdbdcee8eab3c7>@@@Z 000000018001c52c     libucrt:per_thread_data.obj
 0001:0001b550       $unwind$??$?RV<lambda_2d41944a1d46af3157314b8a01080d33>@@AEAV<lambda_8f455de75cd7d7f24b4096f044d8b9e6>@@V<lambda_aa500f224e6afead328df44964fe2772>@@@?$__crt_seh_guarded_call@X@@QEAAX$$QEAV<lambda_2d41944a1d46af3157314b8a01080d33>@@AEAV<lambda_8f455de75cd7d7f24b4096f044d8b9e6>@@$$QEAV<lambda_aa500f224e6afead328df44964fe2772>@@@Z 000000018001c550     libucrt:per_thread_data.obj
 0001:0001b574       $unwind$_invalid_parameter_noinfo 000000018001c574     libucrt:invalid_parameter.obj
 0001:0001b574       $unwind$_log10_special     000000018001c574     libucrt:log_special.obj
 0001:0001b57c       $unwind$__acrt_call_reportfault 000000018001c57c     libucrt:invalid_parameter.obj
 0001:0001b59c       $unwind$??$common_expand_argv_wildcards@D@@YAHQEAPEADQEAPEAPEAD@Z 000000018001c59c     libucrt:argv_wildcards.obj
 0001:0001b5b4       $unwind$??$copy_and_add_argument_to_buffer@D@@YAHQEBD0_KAEAV?$argument_list@D@?A0x5f5c8891@@@Z 000000018001c5b4     libucrt:argv_wildcards.obj
 0001:0001b5d0       $unwind$??$expand_argument_wildcards@D@@YAHQEAD0AEAV?$argument_list@D@?A0x5f5c8891@@@Z 000000018001c5d0     libucrt:argv_wildcards.obj
 0001:0001b5f0       $unwind$_setmbcp_nolock    000000018001c5f0     libucrt:mbctype.obj
 0001:0001b610       $unwind$_isleadbyte_l      000000018001c610     libucrt:_wctype.obj
 0001:0001b610       $unwind$?getSystemCP@@YAHH@Z 000000018001c610     libucrt:mbctype.obj
 0001:0001b610       $unwind$__dcrt_lowio_ensure_console_output_initialized 000000018001c610     libucrt:initcon.obj
 0001:0001b618       $unwind$?update_thread_multibyte_data_internal@@YAPEAU__crt_multibyte_data@@QEAU__acrt_ptd@@QEAPEAU1@@Z 000000018001c618     libucrt:mbctype.obj
 0001:0001b640       $unwind$?setmbcp_internal@@YAHH_NQEAU__acrt_ptd@@QEAPEAU__crt_multibyte_data@@@Z 000000018001c640     libucrt:mbctype.obj
 0001:0001b650       $unwind$?setSBUpLow@@YAXPEAU__crt_multibyte_data@@@Z 000000018001c650     libucrt:mbctype.obj
 0001:0001b66c       $unwind$??$?RV<lambda_efdfa57d1f175319df784efa44bb7b81>@@AEAV<lambda_5f0a4c1567f8adc6734073e5d1e1b35c>@@V<lambda_2e8a7d3640ea6ccb4c2413664c2db6fd>@@@?$__crt_seh_guarded_call@X@@QEAAX$$QEAV<lambda_efdfa57d1f175319df784efa44bb7b81>@@AEAV<lambda_5f0a4c1567f8adc6734073e5d1e1b35c>@@$$QEAV<lambda_2e8a7d3640ea6ccb4c2413664c2db6fd>@@@Z 000000018001c66c     libucrt:mbctype.obj
 0001:0001b694       $unwind$?x_ismbbtype_l@@YAHPEAU__crt_locale_pointers@@IHH@Z 000000018001c694     libucrt:ismbbyte.obj
 0001:0001b6a4       $unwind$__dcrt_get_narrow_environment_from_os 000000018001c6a4     libucrt:get_environment_from_os.obj
 0001:0001b6bc       $unwind$__acrt_LCMapStringEx 000000018001c6bc     libucrt:winapi_thunks.obj
 0001:0001b6d0       $unwind$__acrt_initialize_lowio 000000018001c6d0     libucrt:ioinit.obj
 0001:0001b6f0       $unwind$?initialize_inherited_file_handles_nolock@@YAXXZ 000000018001c6f0     libucrt:ioinit.obj
 0001:0001b70c       $unwind$__acrt_uninitialize_locale 000000018001c70c     libucrt:wsetlocale.obj
 0001:0001b70c       $unwind$__acrt_get_sigabrt_handler 000000018001c70c     libucrt:signal.obj
 0001:0001b714       $unwind$raise              000000018001c714     libucrt:signal.obj
 0001:0001b740       $unwind$??$?RV<lambda_450d765d439847d4c735a33c368b5fc0>@@AEAV<lambda_44731a7d0e6d81c3e6aa82d741081786>@@V<lambda_601a2a7da3b7a96e9554ac7215c4b07c>@@@?$__crt_seh_guarded_call@P6AXH@Z@@QEAAP6AXH@Z$$QEAV<lambda_450d765d439847d4c735a33c368b5fc0>@@AEAV<lambda_44731a7d0e6d81c3e6aa82d741081786>@@$$QEAV<lambda_601a2a7da3b7a96e9554ac7215c4b07c>@@@Z 000000018001c740     libucrt:signal.obj
 0001:0001b764       $unwind$?common_flush_all@@YAH_N@Z 000000018001c764     libucrt:fflush.obj
 0001:0001b76c       $unwind$??$?RV<lambda_842d9ff0dc9ef11c61343bbaebe7f885>@@AEAV<lambda_c5860995281e5c4ce005b3de8f5874ee>@@V<lambda_d90129c13df834fdcbf8d2b88dafcf2d>@@@?$__crt_seh_guarded_call@X@@QEAAX$$QEAV<lambda_842d9ff0dc9ef11c61343bbaebe7f885>@@AEAV<lambda_c5860995281e5c4ce005b3de8f5874ee>@@$$QEAV<lambda_d90129c13df834fdcbf8d2b88dafcf2d>@@@Z 000000018001c76c     libucrt:fflush.obj
 0001:0001b790       $unwind$??$?RV<lambda_886d6c58226a84441f68b9f2b8217b83>@@AEAV<lambda_ab61a845afdef5b7c387490eaf3616ee>@@V<lambda_f7f22ab5edc0698d5f6905b0d3f44752>@@@?$__crt_seh_guarded_call@X@@QEAAX$$QEAV<lambda_886d6c58226a84441f68b9f2b8217b83>@@AEAV<lambda_ab61a845afdef5b7c387490eaf3616ee>@@$$QEAV<lambda_f7f22ab5edc0698d5f6905b0d3f44752>@@@Z 000000018001c790     libucrt:fflush.obj
 0001:0001b7b8       $unwind$__acrt_initialize_stdio 000000018001c7b8     libucrt:_file.obj
 0001:0001b7d0       $unwind$_mbtowc_l          000000018001c7d0     libucrt:mbtowc.obj
 0001:0001b7e8       $unwind$??$?RV<lambda_410d79af7f07d98d83a3f525b3859a53>@@AEAV<lambda_3e16ef9562a7dcce91392c22ab16ea36>@@V<lambda_38119f0e861e05405d8a144b9b982f0a>@@@?$__crt_seh_guarded_call@X@@QEAAX$$QEAV<lambda_410d79af7f07d98d83a3f525b3859a53>@@AEAV<lambda_3e16ef9562a7dcce91392c22ab16ea36>@@$$QEAV<lambda_38119f0e861e05405d8a144b9b982f0a>@@@Z 000000018001c7e8     libucrt:wsetlocale.obj
 0001:0001b810       $unwind$__acrt_update_thread_locale_data 000000018001c810     libucrt:locale_refcounting.obj
 0001:0001b834       $unwind$qsort              000000018001c834     libucrt:qsort.obj
 0001:0001b84c       $chain$4$qsort             000000018001c84c     libucrt:qsort.obj
 0001:0001b870       $chain$5$qsort             000000018001c870     libucrt:qsort.obj
 0001:0001b880       $unwind$strpbrk            000000018001c880     libucrt:strpbrk.obj
 0001:0001b890       $unwind$fallbackMethod     000000018001c890     libucrt:strpbrk.obj
 0001:0001b8a0       $unwind$_mbsdec_l          000000018001c8a0     libucrt:mbsdec.obj
 0001:0001b8ac       $unwind$__acrt_GetStringTypeA 000000018001c8ac     libucrt:getstringtypea.obj
 0001:0001b8d4       $unwind$__acrt_LCMapStringA 000000018001c8d4     libucrt:lcmapstringa.obj
 0001:0001b8e4       $unwind$?__acrt_LCMapStringA_stat@@YAHPEAU__crt_locale_pointers@@PEB_WKPEBDHPEADHHH@Z 000000018001c8e4     libucrt:lcmapstringa.obj
 0001:0001b90c       $unwind$?GetTableIndexFromLocaleName@@YAHPEB_W@Z 000000018001c90c     libucrt:lcidtoname_downlevel.obj
 0001:0001b924       $unwind$__acrt_lowio_destroy_handle_array 000000018001c924     libucrt:osfinfo.obj
 0001:0001b934       $unwind$__acrt_lowio_ensure_fh_exists 000000018001c934     libucrt:osfinfo.obj
 0001:0001b960       $unwind$_commit            000000018001c960     libucrt:commit.obj
 0001:0001b960       $unwind$_close             000000018001c960     libucrt:close.obj
 0001:0001b968       $unwind$??$?RV<lambda_a37b2b86f63e897a80ea819b0eb08c01>@@AEAV<lambda_38ce7e780aa69e748d6df282ebc68efe>@@V<lambda_99fb1378e971ab6e7edea83e3a7a83a2>@@@?$__crt_seh_guarded_call@H@@QEAAH$$QEAV<lambda_a37b2b86f63e897a80ea819b0eb08c01>@@AEAV<lambda_38ce7e780aa69e748d6df282ebc68efe>@@$$QEAV<lambda_99fb1378e971ab6e7edea83e3a7a83a2>@@@Z 000000018001c968     libucrt:commit.obj
 0001:0001b98c       $unwind$_write             000000018001c98c     libucrt:write.obj
 0001:0001b9bc       $unwind$_write_nolock      000000018001c9bc     libucrt:write.obj
 0001:0001b9d4       $unwind$?write_double_translated_ansi_nolock@@YA?AUwrite_result@?A0x17268360@@HQEBDI@Z 000000018001c9d4     libucrt:write.obj
 0001:0001b9f4       $unwind$?write_text_utf16le_nolock@@YA?AUwrite_result@?A0x17268360@@HQEBDI@Z 000000018001c9f4     libucrt:write.obj
 0001:0001b9f4       $unwind$?write_text_ansi_nolock@@YA?AUwrite_result@?A0x17268360@@HQEBDI@Z 000000018001c9f4     libucrt:write.obj
 0001:0001ba14       $unwind$?write_text_utf8_nolock@@YA?AUwrite_result@?A0x17268360@@HQEBDI@Z 000000018001ca14     libucrt:write.obj
 0001:0001ba38       $unwind$_fcloseall         000000018001ca38     libucrt:closeall.obj
 0001:0001ba5c       $unwind$__acrt_locale_free_monetary 000000018001ca5c     libucrt:initmon.obj
 0001:0001ba64       $unwind$__acrt_locale_free_time 000000018001ca64     libucrt:inittime.obj
 0001:0001ba74       $unwind$_putwch_nolock     000000018001ca74     libucrt:putwch.obj
 0001:0001ba7c       $unwind$fclose             000000018001ca7c     libucrt:fclose.obj
 0001:0001baa0       $xdatasym                  000000018001caa0     libucrt:log10.obj
 0001:0001baac       $unwind$__dcrt_write_console_w 000000018001caac     libucrt:initcon.obj
 0001:0001bac0       $unwind$??$?RV<lambda_751a882b2c74d4b022dec766aa51a29a>@@AEAV<lambda_628dfdc04ba53c8bfc02c9951375f3f5>@@V<lambda_f6c7be5f7998530c34de24c7437d6b54>@@@?$__crt_seh_guarded_call@H@@QEAAH$$QEAV<lambda_751a882b2c74d4b022dec766aa51a29a>@@AEAV<lambda_628dfdc04ba53c8bfc02c9951375f3f5>@@$$QEAV<lambda_f6c7be5f7998530c34de24c7437d6b54>@@@Z 000000018001cac0     libucrt:close.obj
 0001:0001bae4       $unwind$_call_matherr      000000018001cae4     libucrt:libm_error.obj
 0001:0001baec       $unwind$_handle_error      000000018001caec     libucrt:libm_error.obj
 0001:0001bb0c       $unwind$__acrt_initialize_fma3 000000018001cb0c     libucrt:fma3_available.obj
 0001:0001bb14       $unwind$_log_special_common 000000018001cb14     libucrt:log_special.obj
 0001:0001bb20       $xdatasym                  000000018001cb20     libucrt:fpsr.obj
 0001:0001bb28       $unwind$_raise_exc_ex      000000018001cb28     libucrt:fpexcept.obj
 0001:0001bb3c       $unwind$_ctrlfp            000000018001cb3c     libucrt:fpctrl.obj
 0001:0001bb64       $unwind$_IsNonwritableInCurrentImage 000000018001cb64     LIBCMT:pesect.obj
 0001:0001bb88       $unwind$__GSHandlerCheckCommon 000000018001cb88     LIBCMT:_gshandler_.obj
 0001:0001bb90       $xdatasym                  000000018001cb90     LIBCMT:_amdsecgs_.obj
 0001:0001bb94       $unwind$__report_securityfailure 000000018001cb94     LIBCMT:gs_report.obj
 0001:0001bb9c       $unwind$__report_gsfailure 000000018001cb9c     LIBCMT:gs_report.obj
 0001:0001bba4       $unwind$capture_current_context 000000018001cba4     LIBCMT:gs_report.obj
 0001:0001bbb0       $unwind$capture_previous_context 000000018001cbb0     LIBCMT:gs_report.obj
 0001:0001bbc0       $xdatasym                  000000018001cbc0     libvcruntime:memcmp.obj
 0001:0001bcc0       .edata                     000000018001ccc0     Network.exp
 0001:0001bce8       rgpv                       000000018001cce8     Network.exp
 0001:0001bd20       rgszName                   000000018001cd20     Network.exp
 0001:0001bd58       rgwOrd                     000000018001cd58     Network.exp
 0001:0001bd74       szName                     000000018001cd74     Network.exp
 0001:0001bd80       $N00001                    000000018001cd80     Network.exp
 0001:0001bd8c       $N00002                    000000018001cd8c     Network.exp
 0001:0001bd97       $N00003                    000000018001cd97     Network.exp
 0001:0001bda4       $N00004                    000000018001cda4     Network.exp
 0001:0001bdad       $N00005                    000000018001cdad     Network.exp
 0001:0001bdbb       $N00006                    000000018001cdbb     Network.exp
 0001:0001bdc8       $N00007                    000000018001cdc8     Network.exp
 0001:0001bdd7       $N00008                    000000018001cdd7     Network.exp
 0001:0001bde9       $N00009                    000000018001cde9     Network.exp
 0001:0001bdf8       $N00010                    000000018001cdf8     Network.exp
 0001:0001bdfe       $N00011                    000000018001cdfe     Network.exp
 0001:0001be11       $N00012                    000000018001ce11     Network.exp
 0001:0001be24       $N00013                    000000018001ce24     Network.exp
 0001:0001be32       $N00014                    000000018001ce32     Network.exp
 0002:00000070       ?FKeys@?BE@??GetOpenPanelInfo@NetBrowser@@QEAAXPEAUOpenPanelInfo@@@Z@4PAGA 000000018001d070     NetClass.obj
 0002:000000e8       ?kbt@?BE@??GetOpenPanelInfo@NetBrowser@@QEAAXPEAUOpenPanelInfo@@@Z@4UKeyBarTitles@@A 000000018001d0e8     NetClass.obj
 0002:00000100       ?FKeys@?BN@??GetOpenPanelInfo@NetBrowser@@QEAAXPEAUOpenPanelInfo@@@Z@4PAGA 000000018001d100     NetClass.obj
 0002:00000178       ?kbt@?BN@??GetOpenPanelInfo@NetBrowser@@QEAAXPEAUOpenPanelInfo@@@Z@4UKeyBarTitles@@A 000000018001d178     NetClass.obj
 0002:000001f0       ?__vcrt_flsindex@@3KA      000000018001d1f0     libvcruntime:per_thread_data.obj
 0002:00000204       ?__acrt_flsindex@@3KA      000000018001d204     libucrt:per_thread_data.obj
 0002:00000208       ?errno_no_memory@@3HA      000000018001d208     libucrt:errno.obj
 0002:0000020c       ?doserrno_no_memory@@3KA   000000018001d20c     libucrt:errno.obj
 0002:00000440       _mbctypes                  000000018001d440     libucrt:mbctype.obj
 0002:00000550       _mbcasemaps                000000018001d550     libucrt:mbctype.obj
 0002:00000650       ?__rgctypeflag@@3PADA      000000018001d650     libucrt:mbctype.obj
 0002:00000660       ?__rgcode_page_info@@3PAUcode_page_info@@A 000000018001d660     libucrt:mbctype.obj
 0002:00000a70       ?__dcrt_lowio_console_output_handle@@3PEAXEA 000000018001da70     libucrt:initcon.obj
 0002:00000a80       ?dazSupported@?1??_ctrlfp@@9@9 000000018001da80     libucrt:fpctrl.obj
 0002:00000b40       ?PluginMenuStrings@?1??GetPluginInfoW@@9@4PAPEB_WA 000000018001db40     NetCfg.obj
 0002:00000b48       ?DiskMenuStrings@?1??GetPluginInfoW@@9@4PAPEB_WA 000000018001db48     NetCfg.obj
 0002:00000b60       ?CurDir@?8??GetOpenPanelInfo@NetBrowser@@QEAAXPEAUOpenPanelInfo@@@Z@4PA_WA 000000018001db60     NetClass.obj
 0002:00000d70       ?Title@?1??GetOpenPanelInfo@NetBrowser@@QEAAXPEAUOpenPanelInfo@@@Z@4PA_WA 000000018001dd70     NetClass.obj
 0002:00000f80       ?PanelModesArray@?1??GetOpenPanelInfo@NetBrowser@@QEAAXPEAUOpenPanelInfo@@@Z@4PAUPanelMode@@A 000000018001df80     NetClass.obj
 0002:00001160       ?ColumnTitles@?1??GetOpenPanelInfo@NetBrowser@@QEAAXPEAUOpenPanelInfo@@@Z@4PAPEB_WA 000000018001e160     NetClass.obj
 0002:00001180       ?kbl@?BE@??GetOpenPanelInfo@NetBrowser@@QEAAXPEAUOpenPanelInfo@@@Z@4PAUKeyBarLabel@@A 000000018001e180     NetClass.obj
 0002:00001350       ?kbl@?BN@??GetOpenPanelInfo@NetBrowser@@QEAAXPEAUOpenPanelInfo@@@Z@4PAUKeyBarLabel@@A 000000018001e350     NetClass.obj
 0002:00001530       ?LastName@?1??GetNameAndPassword@NetBrowser@@CAHPEAU__NameAndPassInfo@@@Z@4PA_WA 000000018001e530     NetClass.obj
 0002:00001730       ?LastPassword@?1??GetNameAndPassword@NetBrowser@@CAHPEAU__NameAndPassInfo@@@Z@4PA_WA 000000018001e730     NetClass.obj
 0002:00001c30       ?__proc_attached@@3HA      000000018001ec30     LIBCMT:dll_dllmain.obj
 0002:00001c64       ?module_local_atexit_table_initialized@@3_NA 000000018001ec64     LIBCMT:utility.obj
 0002:00001c70       ?module_local_atexit_table@@3U_onexit_table_t@@A 000000018001ec70     LIBCMT:utility.obj
 0002:00001c88       ?module_local_at_quick_exit_table@@3U_onexit_table_t@@A 000000018001ec88     LIBCMT:utility.obj
 0002:00001ca0       ?is_initialized_as_dll@@3_NA 000000018001eca0     LIBCMT:utility.obj
 0002:00001cf0       ?heap@@3V_HeapManager@@A   000000018001ecf0     libvcruntime:undname.obj
 0002:00001d20       ?__vcrt_startup_thread_ptd@@3U__vcrt_ptd@@A 000000018001ed20     libvcruntime:per_thread_data.obj
 0002:00001d98       __vcrt_lock_table          000000018001ed98     libvcruntime:locks.obj
 0002:00001dc0       __vcrt_locks_initialized   000000018001edc0     libvcruntime:locks.obj
 0002:00001dc8       ?module_handles@@3PAPEAUHINSTANCE__@@A 000000018001edc8     libvcruntime:winapi_downlevel.obj
 0002:00001de0       ?encoded_function_pointers@@3PAPEAXA 000000018001ede0     libvcruntime:winapi_downlevel.obj
 0002:00001e18       ?__acrt_new_handler@@3V?$dual_state_global@P6AH_K@Z@__crt_state_management@@A 000000018001ee18     libucrt:new_handler.obj
 0002:00001e20       ?c_termination_complete@@3JA 000000018001ee20     libucrt:exit.obj
 0002:00001e28       ?thread_local_exit_callback_func@@3P6AXPEAXK0@ZEA 000000018001ee28     libucrt:exit.obj
 0002:00001e40       ?program_name@?1???$common_configure_argv@D@@YAHW4_crt_argv_mode@@@Z@4PADA 000000018001ee40     libucrt:argv_parsing.obj
 0002:00001fa0       ?__acrt_lock_table@@3PAU_RTL_CRITICAL_SECTION@@A 000000018001efa0     libucrt:locks.obj
 0002:000021d0       ?__acrt_locks_initialized@@3IA 000000018001f1d0     libucrt:locks.obj
 0002:000021d8       ?__acrt_invalid_parameter_handler@@3V?$dual_state_global@P6AXPEB_W00I_K@Z@__crt_state_management@@A 000000018001f1d8     libucrt:invalid_parameter.obj
 0002:000021f8       ?fSystemSet@@3HA           000000018001f1f8     libucrt:mbctype.obj
 0002:000021fc       ?initialized@?1??__acrt_initialize_multibyte@@9@4_NA 000000018001f1fc     libucrt:mbctype.obj
 0002:00002230       ?module_handles@@3PAPEAUHINSTANCE__@@A 000000018001f230     libucrt:winapi_thunks.obj
 0002:000022d0       ?encoded_function_pointers@@3PAPEAXA 000000018001f2d0     libucrt:winapi_thunks.obj
 0002:000027f8       ?ctrlc_action@@3V?$dual_state_global@P6AXH@Z@__crt_state_management@@A 000000018001f7f8     libucrt:signal.obj
 0002:00002800       ?ctrlbreak_action@@3V?$dual_state_global@P6AXH@Z@__crt_state_management@@A 000000018001f800     libucrt:signal.obj
 0002:00002808       ?abort_action@@3V?$dual_state_global@P6AXH@Z@__crt_state_management@@A 000000018001f808     libucrt:signal.obj
 0002:00002810       ?term_action@@3V?$dual_state_global@P6AXH@Z@__crt_state_management@@A 000000018001f810     libucrt:signal.obj
 0002:00002818       ?user_matherr@@3V?$dual_state_global@P6AHPEAU_exception@@@Z@__crt_state_management@@A 000000018001f818     libucrt:matherr.obj
 0002:0000284c       ?__acrt_global_new_mode@@3V?$dual_state_global@J@__crt_state_management@@A 000000018001f84c     libucrt:new_mode.obj
 0002:00002858       ?__acrt_app_type@@3W4_crt_app_type@@A 000000018001f858     libucrt:report_runtime_error.obj
 0002:00002870       GS_ExceptionRecord         000000018001f870     LIBCMT:gs_report.obj
 0002:00002910       GS_ContextRecord           000000018001f910     LIBCMT:gs_report.obj
 0003:0000000c       $pdata$ClosePanelW         000000018002000c     Network.obj
 0003:00000018       $pdata$DeleteFilesW        0000000180020018     Network.obj
 0003:00000024       $pdata$GetFindDataW        0000000180020024     Network.obj
 0003:00000030       $pdata$GetGlobalInfoW      0000000180020030     Network.obj
 0003:0000003c       $pdata$OpenW               000000018002003c     Network.obj
 0003:00000048       $pdata$1$OpenW             0000000180020048     Network.obj
 0003:00000054       $pdata$3$OpenW             0000000180020054     Network.obj
 0003:00000060       $pdata$4$OpenW             0000000180020060     Network.obj
 0003:0000006c       $pdata$ProcessPanelEventW  000000018002006c     Network.obj
 0003:00000078       $pdata$ProcessPanelInputW  0000000180020078     Network.obj
 0003:00000084       $pdata$SetDirectoryW       0000000180020084     Network.obj
 0003:00000168       $pdata$?Config@@YAHXZ      0000000180020168     NetCfg.obj
 0003:00000174       $pdata$2$?Config@@YAHXZ    0000000180020174     NetCfg.obj
 0003:00000180       $pdata$3$?Config@@YAHXZ    0000000180020180     NetCfg.obj
 0003:0000018c       $pdata$4$?Config@@YAHXZ    000000018002018c     NetCfg.obj
 0003:00000198       $pdata$5$?Config@@YAHXZ    0000000180020198     NetCfg.obj
 0003:0000027c       $pdata$GetPluginInfoW      000000018002027c     NetCfg.obj
 0003:000000c0       $pdata$??_G?$DialogItemBinding@UFarDialogItem@@@@UEAAPEAXI@Z 00000001800200c0     NetCfg.obj
 0003:000001d4       $pdata$?SaveValue@PluginCheckBoxBinding@@UEAAXPEAUFarDialogItem@@H@Z 00000001800201d4     NetCfg.obj
 0003:000000cc       $pdata$??_GPluginCheckBoxBinding@@UEAAPEAXI@Z 00000001800200cc     NetCfg.obj
 0003:000000cc       $pdata$??_GPluginEditFieldBinding@@UEAAPEAXI@Z 00000001800200cc     NetClass.obj
 0003:000001ec       $pdata$?SaveValue@PluginRadioButtonBinding@@UEAAXPEAUFarDialogItem@@H@Z 00000001800201ec     NetCfg.obj
 0003:000000f0       $pdata$??_GPluginRadioButtonBinding@@UEAAPEAXI@Z 00000001800200f0     NetCfg.obj
 0003:000001e0       $pdata$?SaveValue@PluginIntEditFieldBinding@@UEAAXPEAUFarDialogItem@@H@Z 00000001800201e0     NetCfg.obj
 0003:000000e4       $pdata$??_GPluginUIntEditFieldBinding@@UEAAPEAXI@Z 00000001800200e4     NetCfg.obj
 0003:000000e4       $pdata$??_GPluginIntEditFieldBinding@@UEAAPEAXI@Z 00000001800200e4     NetCfg.obj
 0003:000001f8       $pdata$?SaveValue@PluginUIntEditFieldBinding@@UEAAXPEAUFarDialogItem@@H@Z 00000001800201f8     NetCfg.obj
 0003:00000120       $pdata$?AddDialogItem@?$DialogBuilderBase@UFarDialogItem@@@@IEAAPEAUFarDialogItem@@W4FARDIALOGITEMTYPES@@PEB_W@Z 0000000180020120     NetCfg.obj
 0003:00000240       $pdata$?UpdateBorderSize@?$DialogBuilderBase@UFarDialogItem@@@@IEAAXXZ 0000000180020240     NetCfg.obj
 0003:0000024c       $pdata$1$?UpdateBorderSize@?$DialogBuilderBase@UFarDialogItem@@@@IEAAXXZ 000000018002024c     NetCfg.obj
 0003:00000258       $pdata$2$?UpdateBorderSize@?$DialogBuilderBase@UFarDialogItem@@@@IEAAXXZ 0000000180020258     NetCfg.obj
 0003:00000264       $pdata$3$?UpdateBorderSize@?$DialogBuilderBase@UFarDialogItem@@@@IEAAXXZ 0000000180020264     NetCfg.obj
 0003:00000270       $pdata$4$?UpdateBorderSize@?$DialogBuilderBase@UFarDialogItem@@@@IEAAXXZ 0000000180020270     NetCfg.obj
 0003:00000090       $pdata$??1?$DialogBuilderBase@UFarDialogItem@@@@MEAA@XZ 0000000180020090     NetCfg.obj
 0003:0000009c       $pdata$0$??1?$DialogBuilderBase@UFarDialogItem@@@@MEAA@XZ 000000018002009c     NetCfg.obj
 0003:000000a8       $pdata$1$??1?$DialogBuilderBase@UFarDialogItem@@@@MEAA@XZ 00000001800200a8     NetCfg.obj
 0003:00000138       $pdata$?AddRadioButtons@?$DialogBuilderBase@UFarDialogItem@@@@QEAAPEAUFarDialogItem@@PEAHHQEBH_N@Z 0000000180020138     NetCfg.obj
 0003:00000144       $pdata$3$?AddRadioButtons@?$DialogBuilderBase@UFarDialogItem@@@@QEAAPEAUFarDialogItem@@PEAHHQEBH_N@Z 0000000180020144     NetCfg.obj
 0003:00000150       $pdata$4$?AddRadioButtons@?$DialogBuilderBase@UFarDialogItem@@@@QEAAPEAUFarDialogItem@@PEAHHQEBH_N@Z 0000000180020150     NetCfg.obj
 0003:000000fc       $pdata$?AddButtons@?$DialogBuilderBase@UFarDialogItem@@@@QEAAXHPEBHHH@Z 00000001800200fc     NetCfg.obj
 0003:00000108       $pdata$4$?AddButtons@?$DialogBuilderBase@UFarDialogItem@@@@QEAAXHPEBHHH@Z 0000000180020108     NetCfg.obj
 0003:00000114       $pdata$5$?AddButtons@?$DialogBuilderBase@UFarDialogItem@@@@QEAAXHPEBHHH@Z 0000000180020114     NetCfg.obj
 0003:00000204       $pdata$?ShowDialog@?$DialogBuilderBase@UFarDialogItem@@@@QEAA_NXZ 0000000180020204     NetCfg.obj
 0003:00000210       $pdata$1$?ShowDialog@?$DialogBuilderBase@UFarDialogItem@@@@QEAA_NXZ 0000000180020210     NetCfg.obj
 0003:0000021c       $pdata$3$?ShowDialog@?$DialogBuilderBase@UFarDialogItem@@@@QEAA_NXZ 000000018002021c     NetCfg.obj
 0003:00000228       $pdata$4$?ShowDialog@?$DialogBuilderBase@UFarDialogItem@@@@QEAA_NXZ 0000000180020228     NetCfg.obj
 0003:00000234       $pdata$5$?ShowDialog@?$DialogBuilderBase@UFarDialogItem@@@@QEAA_NXZ 0000000180020234     NetCfg.obj
 0003:000000b4       $pdata$??_G?$DialogBuilderBase@UFarDialogItem@@@@MEAAPEAXI@Z 00000001800200b4     NetCfg.obj
 0003:000001c8       $pdata$?InitDialogItem@PluginDialogBuilder@@MEAAXPEAUFarDialogItem@@PEB_W@Z 00000001800201c8     NetCfg.obj
 0003:000001bc       $pdata$?DoShowDialog@PluginDialogBuilder@@MEAA_JXZ 00000001800201bc     NetCfg.obj
 0003:000001a4       $pdata$?CreateCheckBoxBinding@PluginDialogBuilder@@MEAAPEAU?$DialogItemBinding@UFarDialogItem@@@@PEAHH@Z 00000001800201a4     NetCfg.obj
 0003:000001b0       $pdata$?CreateRadioButtonBinding@PluginDialogBuilder@@MEAAPEAU?$DialogItemBinding@UFarDialogItem@@@@PEAH@Z 00000001800201b0     NetCfg.obj
 0003:0000012c       $pdata$?AddIntEditField@PluginDialogBuilder@@UEAAPEAUFarDialogItem@@PEAHH@Z 000000018002012c     NetCfg.obj
 0003:0000015c       $pdata$?AddUIntEditField@PluginDialogBuilder@@UEAAPEAUFarDialogItem@@PEAIH@Z 000000018002015c     NetCfg.obj
 0003:000000d8       $pdata$??_GPluginDialogBuilder@@UEAAPEAXI@Z 00000001800200d8     NetCfg.obj
 0003:000006fc       $pdata$ExitFARW            00000001800206fc     NetClass.obj
 0003:000002a0       $pdata$??4NetResourceList@@QEAAAEAV0@AEAV0@@Z 00000001800202a0     NetClass.obj
 0003:000002ac       $pdata$0$??4NetResourceList@@QEAAAEAV0@AEAV0@@Z 00000001800202ac     NetClass.obj
 0003:000002b8       $pdata$1$??4NetResourceList@@QEAAAEAV0@AEAV0@@Z 00000001800202b8     NetClass.obj
 0003:0000033c       $pdata$?CopyNetResource@NetResourceList@@SAXAEAU_NETRESOURCEW@@AEBU2@@Z 000000018002033c     NetClass.obj
 0003:0000030c       $pdata$?Clear@NetResourceList@@QEAAXXZ 000000018002030c     NetClass.obj
 0003:00000318       $pdata$0$?Clear@NetResourceList@@QEAAXXZ 0000000180020318     NetClass.obj
 0003:00000324       $pdata$1$?Clear@NetResourceList@@QEAAXXZ 0000000180020324     NetClass.obj
 0003:000003fc       $pdata$?Enumerate@NetResourceList@@QEAAHKKKPEAU_NETRESOURCEW@@@Z 00000001800203fc     NetClass.obj
 0003:00000624       $pdata$?Push@NetResourceList@@QEAAXAEAU_NETRESOURCEW@@@Z 0000000180020624     NetClass.obj
 0003:00000630       $pdata$?RemoveItems@NetBrowser@@AEAAXXZ 0000000180020630     NetClass.obj
 0003:0000063c       $pdata$1$?RemoveItems@NetBrowser@@AEAAXXZ 000000018002063c     NetClass.obj
 0003:00000648       $pdata$2$?RemoveItems@NetBrowser@@AEAAXXZ 0000000180020648     NetClass.obj
 0003:00000654       $pdata$4$?RemoveItems@NetBrowser@@AEAAXXZ 0000000180020654     NetClass.obj
 0003:00000660       $pdata$5$?RemoveItems@NetBrowser@@AEAAXXZ 0000000180020660     NetClass.obj
 0003:0000066c       $pdata$6$?RemoveItems@NetBrowser@@AEAAXXZ 000000018002066c     NetClass.obj
 0003:00000678       $pdata$7$?RemoveItems@NetBrowser@@AEAAXXZ 0000000180020678     NetClass.obj
 0003:00000384       $pdata$?DisconnectFromServer@NetBrowser@@CAXPEAU_NETRESOURCEW@@@Z 0000000180020384     NetClass.obj
 0003:00000390       $pdata$3$?DisconnectFromServer@NetBrowser@@CAXPEAU_NETRESOURCEW@@@Z 0000000180020390     NetClass.obj
 0003:0000039c       $pdata$4$?DisconnectFromServer@NetBrowser@@CAXPEAU_NETRESOURCEW@@@Z 000000018002039c     NetClass.obj
 0003:000003a8       $pdata$5$?DisconnectFromServer@NetBrowser@@CAXPEAU_NETRESOURCEW@@@Z 00000001800203a8     NetClass.obj
 0003:000003b4       $pdata$6$?DisconnectFromServer@NetBrowser@@CAXPEAU_NETRESOURCEW@@@Z 00000001800203b4     NetClass.obj
 0003:000003c0       $pdata$7$?DisconnectFromServer@NetBrowser@@CAXPEAU_NETRESOURCEW@@@Z 00000001800203c0     NetClass.obj
 0003:000003cc       $pdata$8$?DisconnectFromServer@NetBrowser@@CAXPEAU_NETRESOURCEW@@@Z 00000001800203cc     NetClass.obj
 0003:00000300       $pdata$?ChangeToDirectory@NetBrowser@@AEAAHPEB_W_K_N@Z 0000000180020300     NetClass.obj
 0003:000002f4       $pdata$?CancelConnection@NetBrowser@@AEAAHPEB_W@Z 00000001800202f4     NetClass.obj
 0003:00000330       $pdata$?ConfirmCancelConnection@NetBrowser@@AEAAHPEA_W0AEAH@Z 0000000180020330     NetClass.obj
 0003:000004c8       $pdata$?GetLocalName@NetBrowser@@AEAAXPEA_W0@Z 00000001800204c8     NetClass.obj
 0003:000004d4       $pdata$1$?GetLocalName@NetBrowser@@AEAAXPEA_W0@Z 00000001800204d4     NetClass.obj
 0003:000004e0       $pdata$2$?GetLocalName@NetBrowser@@AEAAXPEA_W0@Z 00000001800204e0     NetClass.obj
 0003:000004ec       $pdata$3$?GetLocalName@NetBrowser@@AEAAXPEA_W0@Z 00000001800204ec     NetClass.obj
 0003:000004f8       $pdata$4$?GetLocalName@NetBrowser@@AEAAXPEA_W0@Z 00000001800204f8     NetClass.obj
 0003:00000504       $pdata$?GetNameAndPassword@NetBrowser@@CAHPEAU__NameAndPassInfo@@@Z 0000000180020504     NetClass.obj
 0003:0000051c       $pdata$?GetRemoteName@NetBrowser@@AEAAXPEAU_NETRESOURCEW@@PEA_W@Z 000000018002051c     NetClass.obj
 0003:00000408       $pdata$?EnumerateNetList@NetBrowser@@AEAAHXZ 0000000180020408     NetClass.obj
 0003:00000498       $pdata$?GetHiddenShares@NetBrowser@@AEAAXXZ 0000000180020498     NetClass.obj
 0003:000004a4       $pdata$4$?GetHiddenShares@NetBrowser@@AEAAXXZ 00000001800204a4     NetClass.obj
 0003:000004b0       $pdata$5$?GetHiddenShares@NetBrowser@@AEAAXXZ 00000001800204b0     NetClass.obj
 0003:000004bc       $pdata$6$?GetHiddenShares@NetBrowser@@AEAAXXZ 00000001800204bc     NetClass.obj
 0003:00000588       $pdata$?IsReadable@NetBrowser@@AEAAHPEB_W@Z 0000000180020588     NetClass.obj
 0003:00000540       $pdata$?GotoComputer@NetBrowser@@AEAAHPEB_W@Z 0000000180020540     NetClass.obj
 0003:000005a0       $pdata$?MapNetworkDrive@NetBrowser@@AEAAHPEB_WHH@Z 00000001800205a0     NetClass.obj
 0003:000002e8       $pdata$?AskMapDrive@NetBrowser@@AEAAHPEA_WAEAH@Z 00000001800202e8     NetClass.obj
 0003:00000414       $pdata$?FileNames2Clipboard@NetBrowser@@AEAAXH@Z 0000000180020414     NetClass.obj
 0003:00000420       $pdata$1$?FileNames2Clipboard@NetBrowser@@AEAAXH@Z 0000000180020420     NetClass.obj
 0003:0000042c       $pdata$2$?FileNames2Clipboard@NetBrowser@@AEAAXH@Z 000000018002042c     NetClass.obj
 0003:00000288       $pdata$??0NetBrowser@@QEAA@XZ 0000000180020288     NetClass.obj
 0003:00000294       $pdata$??1NetBrowser@@QEAA@XZ 0000000180020294     NetClass.obj
 0003:0000045c       $pdata$?GetFindData@NetBrowser@@QEAAHPEAPEAUPluginPanelItem@@PEA_K_K@Z 000000018002045c     NetClass.obj
 0003:00000468       $pdata$2$?GetFindData@NetBrowser@@QEAAHPEAPEAUPluginPanelItem@@PEA_K_K@Z 0000000180020468     NetClass.obj
 0003:00000474       $pdata$3$?GetFindData@NetBrowser@@QEAAHPEAPEAUPluginPanelItem@@PEA_K_K@Z 0000000180020474     NetClass.obj
 0003:00000480       $pdata$4$?GetFindData@NetBrowser@@QEAAHPEAPEAUPluginPanelItem@@PEA_K_K@Z 0000000180020480     NetClass.obj
 0003:0000048c       $pdata$5$?GetFindData@NetBrowser@@QEAAHPEAPEAUPluginPanelItem@@PEA_K_K@Z 000000018002048c     NetClass.obj
 0003:00000438       $pdata$?FreeFindData@NetBrowser@@QEAAXPEAUPluginPanelItem@@H@Z 0000000180020438     NetClass.obj
 0003:00000444       $pdata$0$?FreeFindData@NetBrowser@@QEAAXPEAUPluginPanelItem@@H@Z 0000000180020444     NetClass.obj
 0003:00000450       $pdata$1$?FreeFindData@NetBrowser@@QEAAXPEAUPluginPanelItem@@H@Z 0000000180020450     NetClass.obj
 0003:00000510       $pdata$?GetOpenPanelInfo@NetBrowser@@QEAAXPEAUOpenPanelInfo@@@Z 0000000180020510     NetClass.obj
 0003:000006cc       $pdata$?SetDirectory@NetBrowser@@QEAAHPEB_W_K@Z 00000001800206cc     NetClass.obj
 0003:000006d8       $pdata$1$?SetDirectory@NetBrowser@@QEAAHPEB_W_K@Z 00000001800206d8     NetClass.obj
 0003:000006e4       $pdata$2$?SetDirectory@NetBrowser@@QEAAHPEB_W_K@Z 00000001800206e4     NetClass.obj
 0003:00000348       $pdata$?DeleteFiles@NetBrowser@@QEAAHPEAUPluginPanelItem@@H_K@Z 0000000180020348     NetClass.obj
 0003:00000354       $pdata$0$?DeleteFiles@NetBrowser@@QEAAHPEAUPluginPanelItem@@H_K@Z 0000000180020354     NetClass.obj
 0003:00000360       $pdata$1$?DeleteFiles@NetBrowser@@QEAAHPEAUPluginPanelItem@@H_K@Z 0000000180020360     NetClass.obj
 0003:0000036c       $pdata$2$?DeleteFiles@NetBrowser@@QEAAHPEAUPluginPanelItem@@H_K@Z 000000018002036c     NetClass.obj
 0003:00000378       $pdata$4$?DeleteFiles@NetBrowser@@QEAAHPEAUPluginPanelItem@@H_K@Z 0000000180020378     NetClass.obj
 0003:000005e8       $pdata$?ProcessKey@NetBrowser@@QEAAHPEBU_INPUT_RECORD@@@Z 00000001800205e8     NetClass.obj
 0003:000005f4       $pdata$0$?ProcessKey@NetBrowser@@QEAAHPEBU_INPUT_RECORD@@@Z 00000001800205f4     NetClass.obj
 0003:00000600       $pdata$1$?ProcessKey@NetBrowser@@QEAAHPEBU_INPUT_RECORD@@@Z 0000000180020600     NetClass.obj
 0003:0000060c       $pdata$2$?ProcessKey@NetBrowser@@QEAAHPEBU_INPUT_RECORD@@@Z 000000018002060c     NetClass.obj
 0003:00000618       $pdata$3$?ProcessKey@NetBrowser@@QEAAHPEBU_INPUT_RECORD@@@Z 0000000180020618     NetClass.obj
 0003:000005ac       $pdata$?ProcessEvent@NetBrowser@@QEAAH_JPEAX@Z 00000001800205ac     NetClass.obj
 0003:000005b8       $pdata$1$?ProcessEvent@NetBrowser@@QEAAH_JPEAX@Z 00000001800205b8     NetClass.obj
 0003:000005c4       $pdata$2$?ProcessEvent@NetBrowser@@QEAAH_JPEAX@Z 00000001800205c4     NetClass.obj
 0003:000005d0       $pdata$3$?ProcessEvent@NetBrowser@@QEAAH_JPEAX@Z 00000001800205d0     NetClass.obj
 0003:000005dc       $pdata$4$?ProcessEvent@NetBrowser@@QEAAH_JPEAX@Z 00000001800205dc     NetClass.obj
 0003:000006f0       $pdata$?SetOpenFromFilePanel@NetBrowser@@QEAAHPEA_W@Z 00000001800206f0     NetClass.obj
 0003:0000054c       $pdata$?GotoLocalNetwork@NetBrowser@@QEAAXXZ 000000018002054c     NetClass.obj
 0003:00000558       $pdata$1$?GotoLocalNetwork@NetBrowser@@QEAAXXZ 0000000180020558     NetClass.obj
 0003:00000564       $pdata$2$?GotoLocalNetwork@NetBrowser@@QEAAXXZ 0000000180020564     NetClass.obj
 0003:000003d8       $pdata$?EditFavorites@NetBrowser@@QEAAHXZ 00000001800203d8     NetClass.obj
 0003:000003e4       $pdata$4$?EditFavorites@NetBrowser@@QEAAHXZ 00000001800203e4     NetClass.obj
 0003:000003f0       $pdata$5$?EditFavorites@NetBrowser@@QEAAHXZ 00000001800203f0     NetClass.obj
 0003:000002c4       $pdata$?AddConnectionExplicit@NetBrowser@@SAHPEAU_NETRESOURCEW@@H@Z 00000001800202c4     NetClass.obj
 0003:000002dc       $pdata$?AddConnectionWithLogon@NetBrowser@@SAHPEAU_NETRESOURCEW@@PEA_W1H@Z 00000001800202dc     NetClass.obj
 0003:000002d0       $pdata$?AddConnectionFromFavorites@NetBrowser@@SAHPEAU_NETRESOURCEW@@H@Z 00000001800202d0     NetClass.obj
 0003:00000528       $pdata$?GetResourceInfo@NetBrowser@@SAHPEA_WPEAU_NETRESOURCEW@@@Z 0000000180020528     NetClass.obj
 0003:00000534       $pdata$?GetResourceParent@NetBrowser@@SAHAEAU_NETRESOURCEW@@PEAU2@@Z 0000000180020534     NetClass.obj
 0003:0000057c       $pdata$?IsMSNetResource@NetBrowser@@SAHAEBU_NETRESOURCEW@@@Z 000000018002057c     NetClass.obj
 0003:00000594       $pdata$?IsResourceReadable@NetBrowser@@SAHAEAU_NETRESOURCEW@@@Z 0000000180020594     NetClass.obj
 0003:000006c0       $pdata$?SaveValue@PluginEditFieldBinding@@UEAAXPEAUFarDialogItem@@H@Z 00000001800206c0     NetClass.obj
 0003:00000570       $pdata$?Inflate@SimpleString@@QEAAX_K@Z 0000000180020570     NetClass.obj
 0003:00000684       $pdata$?Replace@SimpleString@@QEAAAEAV1@_K0PEB_W0@Z 0000000180020684     NetClass.obj
 0003:00000690       $pdata$1$?Replace@SimpleString@@QEAAAEAV1@_K0PEB_W0@Z 0000000180020690     NetClass.obj
 0003:0000069c       $pdata$2$?Replace@SimpleString@@QEAAAEAV1@_K0PEB_W0@Z 000000018002069c     NetClass.obj
 0003:000006a8       $pdata$3$?Replace@SimpleString@@QEAAAEAV1@_K0PEB_W0@Z 00000001800206a8     NetClass.obj
 0003:000006b4       $pdata$4$?Replace@SimpleString@@QEAAAEAV1@_K0PEB_W0@Z 00000001800206b4     NetClass.obj
 0003:00000714       $pdata$ConfigureW          0000000180020714     NetCommon.obj
 0003:00000720       $pdata$SetStartupInfoW     0000000180020720     NetCommon.obj
 0003:00000708       $pdata$?DlgCreateFolder@@YAHPEA_WH@Z 0000000180020708     NetCommon.obj
 0003:00000738       $pdata$?GetFavorites@@YAHPEAU_NETRESOURCEW@@PEAVNetResourceList@@@Z 0000000180020738     NetFavorites.obj
 0003:0000072c       $pdata$?CheckFavoriteItem@@YAHQEAU_NETRESOURCEW@@@Z 000000018002072c     NetFavorites.obj
 0003:00000744       $pdata$?GetFavoritesParent@@YAHAEAU_NETRESOURCEW@@PEAU1@@Z 0000000180020744     NetFavorites.obj
 0003:00000750       $pdata$0$?GetFavoritesParent@@YAHAEAU_NETRESOURCEW@@PEAU1@@Z 0000000180020750     NetFavorites.obj
 0003:0000075c       $pdata$1$?GetFavoritesParent@@YAHAEAU_NETRESOURCEW@@PEAU1@@Z 000000018002075c     NetFavorites.obj
 0003:00000768       $pdata$??0TSaveScreen@@QEAA@XZ 0000000180020768     NetMix.obj
 0003:00000774       $pdata$??1TSaveScreen@@QEAA@XZ 0000000180020774     NetMix.obj
 0003:00000780       $pdata$??2@YAPEAX_K@Z      0000000180020780     LIBCMT:new_scalar.obj
 0003:00000798       $pdata$?dllmain_crt_process_attach@@YAHQEAUHINSTANCE__@@QEAX@Z 0000000180020798     LIBCMT:dll_dllmain.obj
 0003:000013bc       $pdata$?fin$0@?0??dllmain_crt_process_attach@@YAHQEAUHINSTANCE__@@QEAX@Z@4HA 00000001800213bc     LIBCMT:dll_dllmain.obj
 0003:000007a4       $pdata$?dllmain_crt_process_detach@@YAH_N@Z 00000001800207a4     LIBCMT:dll_dllmain.obj
 0003:000013c8       $pdata$?fin$0@?0??dllmain_crt_process_detach@@YAH_N@Z@4HA 00000001800213c8     LIBCMT:dll_dllmain.obj
 0003:0000078c       $pdata$?dllmain_crt_dispatch@@YAHQEAUHINSTANCE__@@KQEAX@Z 000000018002078c     LIBCMT:dll_dllmain.obj
 0003:000007b0       $pdata$?dllmain_dispatch@@YAHQEAUHINSTANCE__@@KQEAX@Z 00000001800207b0     LIBCMT:dll_dllmain.obj
 0003:000013d4       $pdata$?filt$0@?0??dllmain_dispatch@@YAHQEAUHINSTANCE__@@KQEAX@Z@4HA 00000001800213d4     LIBCMT:dll_dllmain.obj
 0003:000007bc       $pdata$_DllMainCRTStartup  00000001800207bc     LIBCMT:dll_dllmain.obj
 0003:000007e0       $pdata$??0exception@std@@QEAA@AEBV01@@Z 00000001800207e0     LIBCMT:throw_bad_alloc.obj
 0003:000007ec       $pdata$??_Gbad_array_new_length@std@@UEAAPEAXI@Z 00000001800207ec     LIBCMT:throw_bad_alloc.obj
 0003:000007ec       $pdata$??_Gbad_alloc@std@@UEAAPEAXI@Z 00000001800207ec     LIBCMT:throw_bad_alloc.obj
 0003:000007ec       $pdata$??_Gexception@std@@UEAAPEAXI@Z 00000001800207ec     LIBCMT:throw_bad_alloc.obj
 0003:000007c8       $pdata$??0bad_alloc@std@@QEAA@AEBV01@@Z 00000001800207c8     LIBCMT:throw_bad_alloc.obj
 0003:000007d4       $pdata$??0bad_array_new_length@std@@QEAA@AEBV01@@Z 00000001800207d4     LIBCMT:throw_bad_alloc.obj
 0003:000007f8       $pdata$?__scrt_throw_std_bad_alloc@@YAXXZ 00000001800207f8     LIBCMT:throw_bad_alloc.obj
 0003:00000804       $pdata$?__scrt_throw_std_bad_array_new_length@@YAXXZ 0000000180020804     LIBCMT:throw_bad_alloc.obj
 0003:00000810       $pdata$__security_init_cookie 0000000180020810     LIBCMT:gs_support.obj
 0003:0000081c       $pdata$__scrt_initialize_default_local_stdio_options 000000018002081c     LIBCMT:default_local_stdio_options.obj
 0003:000008a0       $pdata$__scrt_is_nonwritable_in_current_image 00000001800208a0     LIBCMT:utility.obj
 0003:000013e0       $pdata$__scrt_is_nonwritable_in_current_image$filt$0 00000001800213e0     LIBCMT:utility.obj
 0003:00000828       $pdata$__scrt_acquire_startup_lock 0000000180020828     LIBCMT:utility.obj
 0003:000008ac       $pdata$__scrt_release_startup_lock 00000001800208ac     LIBCMT:utility.obj
 0003:00000888       $pdata$__scrt_initialize_crt 0000000180020888     LIBCMT:utility.obj
 0003:000008b8       $pdata$__scrt_uninitialize_crt 00000001800208b8     LIBCMT:utility.obj
 0003:00000894       $pdata$__scrt_initialize_onexit_tables 0000000180020894     LIBCMT:utility.obj
 0003:00000864       $pdata$__scrt_dllmain_exception_filter 0000000180020864     LIBCMT:utility.obj
 0003:00000840       $pdata$__scrt_dllmain_before_initialize_c 0000000180020840     LIBCMT:utility.obj
 0003:00000834       $pdata$__scrt_dllmain_after_initialize_c 0000000180020834     LIBCMT:utility.obj
 0003:00000870       $pdata$__scrt_dllmain_uninitialize_c 0000000180020870     LIBCMT:utility.obj
 0003:0000087c       $pdata$__scrt_dllmain_uninitialize_critical 000000018002087c     LIBCMT:utility.obj
 0003:0000084c       $pdata$__scrt_dllmain_crt_thread_attach 000000018002084c     LIBCMT:utility.obj
 0003:00000858       $pdata$__scrt_dllmain_crt_thread_detach 0000000180020858     LIBCMT:utility.obj
 0003:000008c4       $pdata$__scrt_fastfail     00000001800208c4     LIBCMT:utility_desktop.obj
 0003:000008d0       $pdata$_RTC_Initialize     00000001800208d0     LIBCMT:_initsect_.obj
 0003:000008dc       $pdata$_RTC_Terminate      00000001800208dc     LIBCMT:_initsect_.obj
 0003:000008e8       $pdata$??_Gtype_info@@UEAAPEAXI@Z 00000001800208e8     LIBCMT:std_type_info_static.obj
 0003:000008f4       $pdata$__isa_available_init 00000001800208f4     LIBCMT:_cpu_disp_.obj
 0003:00000900       $pdata$wcschr              0000000180020900     libvcruntime:wcschr.obj
 0003:00000918       $pdata$wcsstr              0000000180020918     libvcruntime:wcsstr.obj
 0003:00000930       $pdata$__C_specific_handler 0000000180020930     libvcruntime:_riscchandler_.obj
 0003:0000093c       $pdata$__std_exception_copy 000000018002093c     libvcruntime:std_exception.obj
 0003:00000948       $pdata$__std_exception_destroy 0000000180020948     libvcruntime:std_exception.obj
 0003:00000954       $pdata$_CxxThrowException  0000000180020954     libvcruntime:throw.obj
 0003:00000960       $pdata$__std_type_info_destroy_list 0000000180020960     libvcruntime:std_type_info.obj
 0003:0000096c       $pdata$__vcrt_initialize   000000018002096c     libvcruntime:initialization.obj
 0003:00000990       $pdata$__vcrt_uninitialize 0000000180020990     libvcruntime:initialization.obj
 0003:0000099c       $pdata$__vcrt_uninitialize_critical 000000018002099c     libvcruntime:initialization.obj
 0003:00000978       $pdata$__vcrt_thread_attach 0000000180020978     libvcruntime:initialization.obj
 0003:00000984       $pdata$__vcrt_thread_detach 0000000180020984     libvcruntime:initialization.obj
 0003:000009fc       $pdata$__vcrt_initialize_ptd 00000001800209fc     libvcruntime:per_thread_data.obj
 0003:00000a08       $pdata$__vcrt_uninitialize_ptd 0000000180020a08     libvcruntime:per_thread_data.obj
 0003:000009f0       $pdata$__vcrt_getptd_noexit 00000001800209f0     libvcruntime:per_thread_data.obj
 0003:000009e4       $pdata$__vcrt_freeptd      00000001800209e4     libvcruntime:per_thread_data.obj
 0003:000009d8       $pdata$__vcrt_freefls      00000001800209d8     libvcruntime:per_thread_data.obj
 0003:00000a14       $pdata$__vcrt_initialize_locks 0000000180020a14     libvcruntime:locks.obj
 0003:00000a20       $pdata$__vcrt_uninitialize_locks 0000000180020a20     libvcruntime:locks.obj
 0003:00000a38       $pdata$__vcrt_FlsAlloc     0000000180020a38     libvcruntime:winapi_downlevel.obj
 0003:00000a44       $pdata$__vcrt_FlsFree      0000000180020a44     libvcruntime:winapi_downlevel.obj
 0003:00000a50       $pdata$__vcrt_FlsGetValue  0000000180020a50     libvcruntime:winapi_downlevel.obj
 0003:00000a5c       $pdata$__vcrt_FlsSetValue  0000000180020a5c     libvcruntime:winapi_downlevel.obj
 0003:00000a68       $pdata$__vcrt_InitializeCriticalSectionEx 0000000180020a68     libvcruntime:winapi_downlevel.obj
 0003:00000a74       $pdata$__vcrt_initialize_winapi_thunks 0000000180020a74     libvcruntime:winapi_downlevel.obj
 0003:00000a80       $pdata$__vcrt_uninitialize_winapi_thunks 0000000180020a80     libvcruntime:winapi_downlevel.obj
 0003:00000a2c       $pdata$?try_get_function@@YAPEAXW4function_id@?A0x89697e75@@QEBDQEBW4module_id@2@2@Z 0000000180020a2c     libvcruntime:winapi_downlevel.obj
 0003:00000a98       $pdata$__DestructExceptionObject 0000000180020a98     libvcruntime:ehhelpers.obj
 0003:000013ec       $pdata$__DestructExceptionObject$filt$0 00000001800213ec     libvcruntime:ehhelpers.obj
 0003:00000aa4       $pdata$_callnewh           0000000180020aa4     libucrt:new_handler.obj
 0003:00000ab0       $pdata$_query_new_handler  0000000180020ab0     libucrt:new_handler.obj
 0003:000013f8       $pdata$_query_new_handler$fin$0 00000001800213f8     libucrt:new_handler.obj
 0003:00000abc       $pdata$_initterm           0000000180020abc     libucrt:initterm.obj
 0003:00000ac8       $pdata$_initterm_e         0000000180020ac8     libucrt:initterm.obj
 0003:00000ad4       $pdata$_seh_filter_exe     0000000180020ad4     libucrt:exception_filter.obj
 0003:00000b10       $pdata$?try_cor_exit_process@@YAXI@Z 0000000180020b10     libucrt:exit.obj
 0003:00000b04       $pdata$?exit_or_terminate_process@@YAXI@Z 0000000180020b04     libucrt:exit.obj
 0003:00000af8       $pdata$?common_exit@@YAXHW4_crt_exit_cleanup_mode@@W4_crt_exit_return_mode@@@Z 0000000180020af8     libucrt:exit.obj
 0003:00000aec       $pdata$??R<lambda_6e4b09c48022b2350581041d5f6b0c4c>@@QEBA@XZ 0000000180020aec     libucrt:exit.obj
 0003:00001410       $pdata$?filt$0@?0???R<lambda_6e4b09c48022b2350581041d5f6b0c4c>@@QEBA@XZ@4HA 0000000180021410     libucrt:exit.obj
 0003:00000ae0       $pdata$??$?RV<lambda_d80eeec6fff315bfe5c115232f3240e3>@@AEAV<lambda_6e4b09c48022b2350581041d5f6b0c4c>@@V<lambda_2358e3775559c9db80273638284d5e45>@@@?$__crt_seh_guarded_call@X@@QEAAX$$QEAV<lambda_d80eeec6fff315bfe5c115232f3240e3>@@AEAV<lambda_6e4b09c48022b2350581041d5f6b0c4c>@@$$QEAV<lambda_2358e3775559c9db80273638284d5e45>@@@Z 0000000180020ae0     libucrt:exit.obj
 0003:00001404       $pdata$?fin$0@?0???$?RV<lambda_0ae27a3a962d80f24befdcbee591983d>@@AEAV<lambda_8d0ee55de4b1038c4002e0adecdf1839>@@V<lambda_dc504788e8f1664fe9b84e20bfb512f2>@@@?$__crt_seh_guarded_call@X@@QEAAX$$QEAV<lambda_0ae27a3a962d80f24befdcbee591983d>@@AEAV<lambda_8d0ee55de4b1038c4002e0adecdf1839>@@$$QEAV<lambda_dc504788e8f1664fe9b84e20bfb512f2>@@@Z@4HA 0000000180021404     libucrt:per_thread_data.obj
 0003:00001404       $pdata$?fin$0@?0???$?RV<lambda_7777bce6b2f8c936911f934f8298dc43>@@AEAV<lambda_f03950bc5685219e0bcd2087efbe011e>@@V<lambda_3883c3dff614d5e0c5f61bb1ac94921c>@@@?$__crt_seh_guarded_call@H@@QEAAH$$QEAV<lambda_7777bce6b2f8c936911f934f8298dc43>@@AEAV<lambda_f03950bc5685219e0bcd2087efbe011e>@@$$QEAV<lambda_3883c3dff614d5e0c5f61bb1ac94921c>@@@Z@4HA 0000000180021404     libucrt:onexit.obj
 0003:00001404       $pdata$?fin$0@?0???$?RV<lambda_f2e299630e499de9f9a165e60fcd3db5>@@AEAV<lambda_2ae9d31cdba2644fcbeaf08da7c24588>@@V<lambda_40d01ff24d0e7b3814fdbdcee8eab3c7>@@@?$__crt_seh_guarded_call@X@@QEAAX$$QEAV<lambda_f2e299630e499de9f9a165e60fcd3db5>@@AEAV<lambda_2ae9d31cdba2644fcbeaf08da7c24588>@@$$QEAV<lambda_40d01ff24d0e7b3814fdbdcee8eab3c7>@@@Z@4HA 0000000180021404     libucrt:per_thread_data.obj
 0003:00001404       $pdata$?fin$0@?0???$?RV<lambda_efdfa57d1f175319df784efa44bb7b81>@@AEAV<lambda_5f0a4c1567f8adc6734073e5d1e1b35c>@@V<lambda_2e8a7d3640ea6ccb4c2413664c2db6fd>@@@?$__crt_seh_guarded_call@X@@QEAAX$$QEAV<lambda_efdfa57d1f175319df784efa44bb7b81>@@AEAV<lambda_5f0a4c1567f8adc6734073e5d1e1b35c>@@$$QEAV<lambda_2e8a7d3640ea6ccb4c2413664c2db6fd>@@@Z@4HA 0000000180021404     libucrt:mbctype.obj
 0003:00001404       $pdata$?fin$0@?0???$?RV<lambda_d80eeec6fff315bfe5c115232f3240e3>@@AEAV<lambda_6e4b09c48022b2350581041d5f6b0c4c>@@V<lambda_2358e3775559c9db80273638284d5e45>@@@?$__crt_seh_guarded_call@X@@QEAAX$$QEAV<lambda_d80eeec6fff315bfe5c115232f3240e3>@@AEAV<lambda_6e4b09c48022b2350581041d5f6b0c4c>@@$$QEAV<lambda_2358e3775559c9db80273638284d5e45>@@@Z@4HA 0000000180021404     libucrt:exit.obj
 0003:00001404       $pdata$?fin$0@?0???$?RV<lambda_aa87e3671a710a21b5dc78c0bdf72e11>@@AEAV<lambda_92619d2358a28f41a33ba319515a20b9>@@V<lambda_6992ecaafeb10aed2b74cb1fae11a551>@@@?$__crt_seh_guarded_call@X@@QEAAX$$QEAV<lambda_aa87e3671a710a21b5dc78c0bdf72e11>@@AEAV<lambda_92619d2358a28f41a33ba319515a20b9>@@$$QEAV<lambda_6992ecaafeb10aed2b74cb1fae11a551>@@@Z@4HA 0000000180021404     libucrt:per_thread_data.obj
 0003:00001404       $pdata$?fin$0@?0???$?RV<lambda_450d765d439847d4c735a33c368b5fc0>@@AEAV<lambda_44731a7d0e6d81c3e6aa82d741081786>@@V<lambda_601a2a7da3b7a96e9554ac7215c4b07c>@@@?$__crt_seh_guarded_call@P6AXH@Z@@QEAAP6AXH@Z$$QEAV<lambda_450d765d439847d4c735a33c368b5fc0>@@AEAV<lambda_44731a7d0e6d81c3e6aa82d741081786>@@$$QEAV<lambda_601a2a7da3b7a96e9554ac7215c4b07c>@@@Z@4HA 0000000180021404     libucrt:signal.obj
 0003:00001404       $pdata$?fin$0@?0???$?RV<lambda_2d41944a1d46af3157314b8a01080d33>@@AEAV<lambda_8f455de75cd7d7f24b4096f044d8b9e6>@@V<lambda_aa500f224e6afead328df44964fe2772>@@@?$__crt_seh_guarded_call@X@@QEAAX$$QEAV<lambda_2d41944a1d46af3157314b8a01080d33>@@AEAV<lambda_8f455de75cd7d7f24b4096f044d8b9e6>@@$$QEAV<lambda_aa500f224e6afead328df44964fe2772>@@@Z@4HA 0000000180021404     libucrt:per_thread_data.obj
 0003:00000b34       $pdata$_configure_narrow_argv 0000000180020b34     libucrt:argv_parsing.obj
 0003:00000b28       $pdata$__acrt_allocate_buffer_for_argv 0000000180020b28     libucrt:argv_parsing.obj
 0003:00000b1c       $pdata$??$parse_command_line@D@@YAXPEADPEAPEAD0PEA_K2@Z 0000000180020b1c     libucrt:argv_parsing.obj
 0003:00000b7c       $pdata$__dcrt_uninitialize_environments_nolock 0000000180020b7c     libucrt:environment_initialization.obj
 0003:00000b40       $pdata$??$common_initialize_environment_nolock@D@@YAHXZ 0000000180020b40     libucrt:environment_initialization.obj
 0003:00000b64       $pdata$??$uninitialize_environment_internal@D@@YAXAEAPEAPEAD@Z 0000000180020b64     libucrt:environment_initialization.obj
 0003:00000b70       $pdata$??$uninitialize_environment_internal@_W@@YAXAEAPEAPEA_W@Z 0000000180020b70     libucrt:environment_initialization.obj
 0003:00000b58       $pdata$??$free_environment@D@@YAXQEAPEAD@Z 0000000180020b58     libucrt:environment_initialization.obj
 0003:00000b58       $pdata$??$free_environment@_W@@YAXQEAPEA_W@Z 0000000180020b58     libucrt:environment_initialization.obj
 0003:00000b4c       $pdata$??$create_environment@D@@YAQEAPEADQEAD@Z 0000000180020b4c     libucrt:environment_initialization.obj
 0003:00000ba0       $pdata$_execute_onexit_table 0000000180020ba0     libucrt:onexit.obj
 0003:00000b94       $pdata$??R<lambda_f03950bc5685219e0bcd2087efbe011e>@@QEBAHXZ 0000000180020b94     libucrt:onexit.obj
 0003:00000b88       $pdata$??$?RV<lambda_7777bce6b2f8c936911f934f8298dc43>@@AEAV<lambda_f03950bc5685219e0bcd2087efbe011e>@@V<lambda_3883c3dff614d5e0c5f61bb1ac94921c>@@@?$__crt_seh_guarded_call@H@@QEAAH$$QEAV<lambda_7777bce6b2f8c936911f934f8298dc43>@@AEAV<lambda_f03950bc5685219e0bcd2087efbe011e>@@$$QEAV<lambda_3883c3dff614d5e0c5f61bb1ac94921c>@@@Z 0000000180020b88     libucrt:onexit.obj
 0003:00000c00       $pdata$__acrt_uninitialize 0000000180020c00     libucrt:initialization.obj
 0003:00000c0c       $pdata$__acrt_uninitialize_critical 0000000180020c0c     libucrt:initialization.obj
 0003:00000be8       $pdata$__acrt_thread_attach 0000000180020be8     libucrt:initialization.obj
 0003:00000bf4       $pdata$__acrt_thread_detach 0000000180020bf4     libucrt:initialization.obj
 0003:00000bac       $pdata$initialize_c        0000000180020bac     libucrt:initialization.obj
 0003:00000bb8       $pdata$uninitialize_environment 0000000180020bb8     libucrt:initialization.obj
 0003:00000bc4       $pdata$initialize_pointers 0000000180020bc4     libucrt:initialization.obj
 0003:00000bd0       $pdata$uninitialize_allocated_memory 0000000180020bd0     libucrt:initialization.obj
 0003:00000bdc       $pdata$uninitialize_allocated_io_buffers 0000000180020bdc     libucrt:initialization.obj
 0003:00000c18       $pdata$terminate           0000000180020c18     libucrt:terminate.obj
 0003:00000c24       $pdata$_wcsdup             0000000180020c24     libucrt:wcsdup.obj
 0003:00000c30       $pdata$strcpy_s            0000000180020c30     libucrt:strcpy_s.obj
 0003:00000c3c       $pdata$??0_LocaleUpdate@@QEAA@QEAU__crt_locale_pointers@@@Z 0000000180020c3c     libucrt:output.obj
 0003:00000c54       $pdata$abort               0000000180020c54     libucrt:abort.obj
 0003:00000c60       $pdata$_free_base          0000000180020c60     libucrt:free_base.obj
 0003:00000c6c       $pdata$_malloc_base        0000000180020c6c     libucrt:malloc_base.obj
 0003:00000c78       $pdata$_realloc_base       0000000180020c78     libucrt:realloc_base.obj
 0003:00000c84       $pdata$__acrt_initialize_locks 0000000180020c84     libucrt:locks.obj
 0003:00000c90       $pdata$__acrt_uninitialize_locks 0000000180020c90     libucrt:locks.obj
 0003:00000d2c       $pdata$__acrt_initialize_ptd 0000000180020d2c     libucrt:per_thread_data.obj
 0003:00000d38       $pdata$__acrt_uninitialize_ptd 0000000180020d38     libucrt:per_thread_data.obj
 0003:00000d08       $pdata$__acrt_getptd       0000000180020d08     libucrt:per_thread_data.obj
 0003:00000d14       $pdata$__acrt_getptd_head  0000000180020d14     libucrt:per_thread_data.obj
 0003:00000d20       $pdata$__acrt_getptd_noexit 0000000180020d20     libucrt:per_thread_data.obj
 0003:00000cfc       $pdata$__acrt_freeptd      0000000180020cfc     libucrt:per_thread_data.obj
 0003:00000cd8       $pdata$?destroy_fls@@YAXPEAX@Z 0000000180020cd8     libucrt:per_thread_data.obj
 0003:00000cf0       $pdata$?replace_current_thread_locale_nolock@@YAXQEAU__acrt_ptd@@QEAU__crt_locale_data@@@Z 0000000180020cf0     libucrt:per_thread_data.obj
 0003:00000ccc       $pdata$?construct_ptd_array@@YAXQEAU__acrt_ptd@@@Z 0000000180020ccc     libucrt:per_thread_data.obj
 0003:00000ce4       $pdata$?destroy_ptd_array@@YAXQEAU__acrt_ptd@@@Z 0000000180020ce4     libucrt:per_thread_data.obj
 0003:00000c9c       $pdata$??$?RV<lambda_0ae27a3a962d80f24befdcbee591983d>@@AEAV<lambda_8d0ee55de4b1038c4002e0adecdf1839>@@V<lambda_dc504788e8f1664fe9b84e20bfb512f2>@@@?$__crt_seh_guarded_call@X@@QEAAX$$QEAV<lambda_0ae27a3a962d80f24befdcbee591983d>@@AEAV<lambda_8d0ee55de4b1038c4002e0adecdf1839>@@$$QEAV<lambda_dc504788e8f1664fe9b84e20bfb512f2>@@@Z 0000000180020c9c     libucrt:per_thread_data.obj
 0003:00000cb4       $pdata$??$?RV<lambda_aa87e3671a710a21b5dc78c0bdf72e11>@@AEAV<lambda_92619d2358a28f41a33ba319515a20b9>@@V<lambda_6992ecaafeb10aed2b74cb1fae11a551>@@@?$__crt_seh_guarded_call@X@@QEAAX$$QEAV<lambda_aa87e3671a710a21b5dc78c0bdf72e11>@@AEAV<lambda_92619d2358a28f41a33ba319515a20b9>@@$$QEAV<lambda_6992ecaafeb10aed2b74cb1fae11a551>@@@Z 0000000180020cb4     libucrt:per_thread_data.obj
 0003:00000cc0       $pdata$??$?RV<lambda_f2e299630e499de9f9a165e60fcd3db5>@@AEAV<lambda_2ae9d31cdba2644fcbeaf08da7c24588>@@V<lambda_40d01ff24d0e7b3814fdbdcee8eab3c7>@@@?$__crt_seh_guarded_call@X@@QEAAX$$QEAV<lambda_f2e299630e499de9f9a165e60fcd3db5>@@AEAV<lambda_2ae9d31cdba2644fcbeaf08da7c24588>@@$$QEAV<lambda_40d01ff24d0e7b3814fdbdcee8eab3c7>@@@Z 0000000180020cc0     libucrt:per_thread_data.obj
 0003:00000ca8       $pdata$??$?RV<lambda_2d41944a1d46af3157314b8a01080d33>@@AEAV<lambda_8f455de75cd7d7f24b4096f044d8b9e6>@@V<lambda_aa500f224e6afead328df44964fe2772>@@@?$__crt_seh_guarded_call@X@@QEAAX$$QEAV<lambda_2d41944a1d46af3157314b8a01080d33>@@AEAV<lambda_8f455de75cd7d7f24b4096f044d8b9e6>@@$$QEAV<lambda_aa500f224e6afead328df44964fe2772>@@@Z 0000000180020ca8     libucrt:per_thread_data.obj
 0003:00000d44       $pdata$__acrt_get_process_end_policy 0000000180020d44     libucrt:win_policies.obj
 0003:00000d68       $pdata$_invalid_parameter_noinfo 0000000180020d68     libucrt:invalid_parameter.obj
 0003:00000d74       $pdata$_invoke_watson      0000000180020d74     libucrt:invalid_parameter.obj
 0003:00000d50       $pdata$__acrt_call_reportfault 0000000180020d50     libucrt:invalid_parameter.obj
 0003:00000d5c       $pdata$_invalid_parameter  0000000180020d5c     libucrt:invalid_parameter.obj
 0003:00000d98       $pdata$_errno              0000000180020d98     libucrt:errno.obj
 0003:00000d8c       $pdata$__doserrno          0000000180020d8c     libucrt:errno.obj
 0003:00000d80       $pdata$__acrt_errno_map_os_error 0000000180020d80     libucrt:errno.obj
 0003:00000da4       $pdata$_calloc_base        0000000180020da4     libucrt:calloc_base.obj
 0003:00000db0       $pdata$??$common_expand_argv_wildcards@D@@YAHQEAPEADQEAPEAPEAD@Z 0000000180020db0     libucrt:argv_wildcards.obj
 0003:00000dbc       $pdata$??$copy_and_add_argument_to_buffer@D@@YAHQEBD0_KAEAV?$argument_list@D@?A0x5f5c8891@@@Z 0000000180020dbc     libucrt:argv_wildcards.obj
 0003:00000dc8       $pdata$??$expand_argument_wildcards@D@@YAHQEAD0AEAV?$argument_list@D@?A0x5f5c8891@@@Z 0000000180020dc8     libucrt:argv_wildcards.obj
 0003:00000e28       $pdata$__acrt_update_thread_multibyte_data 0000000180020e28     libucrt:mbctype.obj
 0003:00000e1c       $pdata$__acrt_initialize_multibyte 0000000180020e1c     libucrt:mbctype.obj
 0003:00000e34       $pdata$_setmbcp_nolock     0000000180020e34     libucrt:mbctype.obj
 0003:00000de0       $pdata$?getSystemCP@@YAHH@Z 0000000180020de0     libucrt:mbctype.obj
 0003:00000dec       $pdata$?setSBCS@@YAXPEAU__crt_multibyte_data@@@Z 0000000180020dec     libucrt:mbctype.obj
 0003:00000e10       $pdata$?update_thread_multibyte_data_internal@@YAPEAU__crt_multibyte_data@@QEAU__acrt_ptd@@QEAPEAU1@@Z 0000000180020e10     libucrt:mbctype.obj
 0003:0000141c       $pdata$?fin$0@?0??update_thread_multibyte_data_internal@@YAPEAU__crt_multibyte_data@@QEAU__acrt_ptd@@QEAPEAU1@@Z@4HA 000000018002141c     libucrt:mbctype.obj
 0003:00000e04       $pdata$?setmbcp_internal@@YAHH_NQEAU__acrt_ptd@@QEAPEAU__crt_multibyte_data@@@Z 0000000180020e04     libucrt:mbctype.obj
 0003:00000df8       $pdata$?setSBUpLow@@YAXPEAU__crt_multibyte_data@@@Z 0000000180020df8     libucrt:mbctype.obj
 0003:00000dd4       $pdata$??$?RV<lambda_efdfa57d1f175319df784efa44bb7b81>@@AEAV<lambda_5f0a4c1567f8adc6734073e5d1e1b35c>@@V<lambda_2e8a7d3640ea6ccb4c2413664c2db6fd>@@@?$__crt_seh_guarded_call@X@@QEAAX$$QEAV<lambda_efdfa57d1f175319df784efa44bb7b81>@@AEAV<lambda_5f0a4c1567f8adc6734073e5d1e1b35c>@@$$QEAV<lambda_2e8a7d3640ea6ccb4c2413664c2db6fd>@@@Z 0000000180020dd4     libucrt:mbctype.obj
 0003:00000e40       $pdata$?x_ismbbtype_l@@YAHPEAU__crt_locale_pointers@@IHH@Z 0000000180020e40     libucrt:ismbbyte.obj
 0003:00000e4c       $pdata$__acrt_initialize_command_line 0000000180020e4c     libucrt:argv_data.obj
 0003:00000e58       $pdata$wcscpy_s            0000000180020e58     libucrt:wcscpy_s.obj
 0003:00000e64       $pdata$__dcrt_get_narrow_environment_from_os 0000000180020e64     libucrt:get_environment_from_os.obj
 0003:00000e70       $pdata$_recalloc_base      0000000180020e70     libucrt:recalloc.obj
 0003:00000ee8       $pdata$__acrt_initialize_winapi_thunks 0000000180020ee8     libucrt:winapi_thunks.obj
 0003:00000ef4       $pdata$__acrt_uninitialize_winapi_thunks 0000000180020ef4     libucrt:winapi_thunks.obj
 0003:00000e94       $pdata$__acrt_FlsAlloc     0000000180020e94     libucrt:winapi_thunks.obj
 0003:00000ea0       $pdata$__acrt_FlsFree      0000000180020ea0     libucrt:winapi_thunks.obj
 0003:00000eac       $pdata$__acrt_FlsGetValue  0000000180020eac     libucrt:winapi_thunks.obj
 0003:00000eb8       $pdata$__acrt_FlsSetValue  0000000180020eb8     libucrt:winapi_thunks.obj
 0003:00000ec4       $pdata$__acrt_InitializeCriticalSectionEx 0000000180020ec4     libucrt:winapi_thunks.obj
 0003:00000ed0       $pdata$__acrt_LCMapStringEx 0000000180020ed0     libucrt:winapi_thunks.obj
 0003:00000edc       $pdata$__acrt_LocaleNameToLCID 0000000180020edc     libucrt:winapi_thunks.obj
 0003:00000e88       $pdata$__acrt_AppPolicyGetProcessTerminationMethodInternal 0000000180020e88     libucrt:winapi_thunks.obj
 0003:00000e7c       $pdata$?try_get_function@@YAPEAXW4function_id@?A0x391cf84c@@QEBDQEBW4module_id@2@2@Z 0000000180020e7c     libucrt:winapi_thunks.obj
 0003:00000f00       $pdata$__acrt_initialize_heap 0000000180020f00     libucrt:heap_handle.obj
 0003:00000f24       $pdata$__acrt_initialize_lowio 0000000180020f24     libucrt:ioinit.obj
 0003:00001428       $pdata$__acrt_lowio_ensure_fh_exists$fin$0 0000000180021428     libucrt:osfinfo.obj
 0003:00001428       $pdata$__acrt_initialize_lowio$fin$0 0000000180021428     libucrt:ioinit.obj
 0003:00000f30       $pdata$__acrt_uninitialize_lowio 0000000180020f30     libucrt:ioinit.obj
 0003:00000f0c       $pdata$?initialize_inherited_file_handles_nolock@@YAXXZ 0000000180020f0c     libucrt:ioinit.obj
 0003:00000f18       $pdata$?initialize_stdio_handles_nolock@@YAXXZ 0000000180020f18     libucrt:ioinit.obj
 0003:00000f3c       $pdata$__acrt_execute_initializers 0000000180020f3c     libucrt:shared_initialization.obj
 0003:00000f48       $pdata$__acrt_execute_uninitializers 0000000180020f48     libucrt:shared_initialization.obj
 0003:00000f60       $pdata$__acrt_get_sigabrt_handler 0000000180020f60     libucrt:signal.obj
 0003:00000f6c       $pdata$raise               0000000180020f6c     libucrt:signal.obj
 0003:00001434       $pdata$raise$fin$0         0000000180021434     libucrt:signal.obj
 0003:00000f54       $pdata$??$?RV<lambda_450d765d439847d4c735a33c368b5fc0>@@AEAV<lambda_44731a7d0e6d81c3e6aa82d741081786>@@V<lambda_601a2a7da3b7a96e9554ac7215c4b07c>@@@?$__crt_seh_guarded_call@P6AXH@Z@@QEAAP6AXH@Z$$QEAV<lambda_450d765d439847d4c735a33c368b5fc0>@@AEAV<lambda_44731a7d0e6d81c3e6aa82d741081786>@@$$QEAV<lambda_601a2a7da3b7a96e9554ac7215c4b07c>@@@Z 0000000180020f54     libucrt:signal.obj
 0003:00000fa8       $pdata$_fflush_nolock      0000000180020fa8     libucrt:fflush.obj
 0003:00000f9c       $pdata$__acrt_stdio_flush_nolock 0000000180020f9c     libucrt:fflush.obj
 0003:00000f90       $pdata$?common_flush_all@@YAH_N@Z 0000000180020f90     libucrt:fflush.obj
 0003:00000f78       $pdata$??$?RV<lambda_842d9ff0dc9ef11c61343bbaebe7f885>@@AEAV<lambda_c5860995281e5c4ce005b3de8f5874ee>@@V<lambda_d90129c13df834fdcbf8d2b88dafcf2d>@@@?$__crt_seh_guarded_call@X@@QEAAX$$QEAV<lambda_842d9ff0dc9ef11c61343bbaebe7f885>@@AEAV<lambda_c5860995281e5c4ce005b3de8f5874ee>@@$$QEAV<lambda_d90129c13df834fdcbf8d2b88dafcf2d>@@@Z 0000000180020f78     libucrt:fflush.obj
 0003:00001440       $pdata$?fin$0@?0???$?RV<lambda_842d9ff0dc9ef11c61343bbaebe7f885>@@AEAV<lambda_c5860995281e5c4ce005b3de8f5874ee>@@V<lambda_d90129c13df834fdcbf8d2b88dafcf2d>@@@?$__crt_seh_guarded_call@X@@QEAAX$$QEAV<lambda_842d9ff0dc9ef11c61343bbaebe7f885>@@AEAV<lambda_c5860995281e5c4ce005b3de8f5874ee>@@$$QEAV<lambda_d90129c13df834fdcbf8d2b88dafcf2d>@@@Z@4HA 0000000180021440     libucrt:fflush.obj
 0003:00000f84       $pdata$??$?RV<lambda_886d6c58226a84441f68b9f2b8217b83>@@AEAV<lambda_ab61a845afdef5b7c387490eaf3616ee>@@V<lambda_f7f22ab5edc0698d5f6905b0d3f44752>@@@?$__crt_seh_guarded_call@X@@QEAAX$$QEAV<lambda_886d6c58226a84441f68b9f2b8217b83>@@AEAV<lambda_ab61a845afdef5b7c387490eaf3616ee>@@$$QEAV<lambda_f7f22ab5edc0698d5f6905b0d3f44752>@@@Z 0000000180020f84     libucrt:fflush.obj
 0003:0000144c       $pdata$?fin$0@?0???$?RV<lambda_886d6c58226a84441f68b9f2b8217b83>@@AEAV<lambda_ab61a845afdef5b7c387490eaf3616ee>@@V<lambda_f7f22ab5edc0698d5f6905b0d3f44752>@@@?$__crt_seh_guarded_call@X@@QEAAX$$QEAV<lambda_886d6c58226a84441f68b9f2b8217b83>@@AEAV<lambda_ab61a845afdef5b7c387490eaf3616ee>@@$$QEAV<lambda_f7f22ab5edc0698d5f6905b0d3f44752>@@@Z@4HA 000000018002144c     libucrt:fflush.obj
 0003:00000fb4       $pdata$__acrt_initialize_stdio 0000000180020fb4     libucrt:_file.obj
 0003:00000fc0       $pdata$__acrt_uninitialize_stdio 0000000180020fc0     libucrt:_file.obj
 0003:00000fcc       $pdata$_mbtowc_l           0000000180020fcc     libucrt:mbtowc.obj
 0003:00000fd8       $pdata$__acrt_update_locale_info 0000000180020fd8     libucrt:locale_update.obj
 0003:00000fe4       $pdata$__acrt_update_multibyte_info 0000000180020fe4     libucrt:locale_update.obj
 0003:00000ff0       $pdata$_fileno             0000000180020ff0     libucrt:fileno.obj
 0003:00001008       $pdata$__acrt_uninitialize_locale 0000000180021008     libucrt:wsetlocale.obj
 0003:00000ffc       $pdata$??$?RV<lambda_410d79af7f07d98d83a3f525b3859a53>@@AEAV<lambda_3e16ef9562a7dcce91392c22ab16ea36>@@V<lambda_38119f0e861e05405d8a144b9b982f0a>@@@?$__crt_seh_guarded_call@X@@QEAAX$$QEAV<lambda_410d79af7f07d98d83a3f525b3859a53>@@AEAV<lambda_3e16ef9562a7dcce91392c22ab16ea36>@@$$QEAV<lambda_38119f0e861e05405d8a144b9b982f0a>@@@Z 0000000180020ffc     libucrt:wsetlocale.obj
 0003:00001458       $pdata$?fin$0@?0???$?RV<lambda_410d79af7f07d98d83a3f525b3859a53>@@AEAV<lambda_3e16ef9562a7dcce91392c22ab16ea36>@@V<lambda_38119f0e861e05405d8a144b9b982f0a>@@@?$__crt_seh_guarded_call@X@@QEAAX$$QEAV<lambda_410d79af7f07d98d83a3f525b3859a53>@@AEAV<lambda_3e16ef9562a7dcce91392c22ab16ea36>@@$$QEAV<lambda_38119f0e861e05405d8a144b9b982f0a>@@@Z@4HA 0000000180021458     libucrt:wsetlocale.obj
 0003:00001014       $pdata$__pctype_func       0000000180021014     libucrt:ctype.obj
 0003:00001038       $pdata$__acrt_release_locale_ref 0000000180021038     libucrt:locale_refcounting.obj
 0003:00001020       $pdata$__acrt_free_locale  0000000180021020     libucrt:locale_refcounting.obj
 0003:0000102c       $pdata$__acrt_locale_free_lc_time_if_unreferenced 000000018002102c     libucrt:locale_refcounting.obj
 0003:00001044       $pdata$__acrt_update_thread_locale_data 0000000180021044     libucrt:locale_refcounting.obj
 0003:00001464       $pdata$__acrt_update_thread_locale_data$fin$0 0000000180021464     libucrt:locale_refcounting.obj
 0003:00001050       $pdata$_updatetlocinfoEx_nolock 0000000180021050     libucrt:locale_refcounting.obj
 0003:0000105c       $pdata$qsort               000000018002105c     libucrt:qsort.obj
 0003:00001068       $pdata$4$qsort             0000000180021068     libucrt:qsort.obj
 0003:00001074       $pdata$5$qsort             0000000180021074     libucrt:qsort.obj
 0003:00001080       $pdata$strncpy_s           0000000180021080     libucrt:strncpy_s.obj
 0003:00001098       $pdata$strpbrk             0000000180021098     libucrt:strpbrk.obj
 0003:0000108c       $pdata$fallbackMethod      000000018002108c     libucrt:strpbrk.obj
 0003:000010a4       $pdata$_mbsdec_l           00000001800210a4     libucrt:mbsdec.obj
 0003:000010b0       $pdata$?initialize_multibyte@@YAHXZ 00000001800210b0     libucrt:multibyte_initializer.obj
 0003:000010bc       $pdata$__acrt_GetStringTypeA 00000001800210bc     libucrt:getstringtypea.obj
 0003:000010d4       $pdata$__acrt_LCMapStringA 00000001800210d4     libucrt:lcmapstringa.obj
 0003:000010c8       $pdata$?__acrt_LCMapStringA_stat@@YAHPEAU__crt_locale_pointers@@PEB_WKPEBDHPEADHHH@Z 00000001800210c8     libucrt:lcmapstringa.obj
 0003:000010e0       $pdata$_msize_base         00000001800210e0     libucrt:msize.obj
 0003:000010f8       $pdata$__acrt_DownlevelLocaleNameToLCID 00000001800210f8     libucrt:lcidtoname_downlevel.obj
 0003:000010ec       $pdata$?GetTableIndexFromLocaleName@@YAHPEB_W@Z 00000001800210ec     libucrt:lcidtoname_downlevel.obj
 0003:00001134       $pdata$_get_osfhandle      0000000180021134     libucrt:osfinfo.obj
 0003:00001128       $pdata$_free_osfhnd        0000000180021128     libucrt:osfinfo.obj
 0003:00001104       $pdata$__acrt_lowio_create_handle_array 0000000180021104     libucrt:osfinfo.obj
 0003:00001110       $pdata$__acrt_lowio_destroy_handle_array 0000000180021110     libucrt:osfinfo.obj
 0003:0000111c       $pdata$__acrt_lowio_ensure_fh_exists 000000018002111c     libucrt:osfinfo.obj
 0003:0000114c       $pdata$_commit             000000018002114c     libucrt:commit.obj
 0003:00001140       $pdata$??$?RV<lambda_a37b2b86f63e897a80ea819b0eb08c01>@@AEAV<lambda_38ce7e780aa69e748d6df282ebc68efe>@@V<lambda_99fb1378e971ab6e7edea83e3a7a83a2>@@@?$__crt_seh_guarded_call@H@@QEAAH$$QEAV<lambda_a37b2b86f63e897a80ea819b0eb08c01>@@AEAV<lambda_38ce7e780aa69e748d6df282ebc68efe>@@$$QEAV<lambda_99fb1378e971ab6e7edea83e3a7a83a2>@@@Z 0000000180021140     libucrt:commit.obj
 0003:00001470       $pdata$?fin$0@?0???$?RV<lambda_751a882b2c74d4b022dec766aa51a29a>@@AEAV<lambda_628dfdc04ba53c8bfc02c9951375f3f5>@@V<lambda_f6c7be5f7998530c34de24c7437d6b54>@@@?$__crt_seh_guarded_call@H@@QEAAH$$QEAV<lambda_751a882b2c74d4b022dec766aa51a29a>@@AEAV<lambda_628dfdc04ba53c8bfc02c9951375f3f5>@@$$QEAV<lambda_f6c7be5f7998530c34de24c7437d6b54>@@@Z@4HA 0000000180021470     libucrt:close.obj
 0003:00001470       $pdata$?fin$0@?0???$?RV<lambda_a37b2b86f63e897a80ea819b0eb08c01>@@AEAV<lambda_38ce7e780aa69e748d6df282ebc68efe>@@V<lambda_99fb1378e971ab6e7edea83e3a7a83a2>@@@?$__crt_seh_guarded_call@H@@QEAAH$$QEAV<lambda_a37b2b86f63e897a80ea819b0eb08c01>@@AEAV<lambda_38ce7e780aa69e748d6df282ebc68efe>@@$$QEAV<lambda_99fb1378e971ab6e7edea83e3a7a83a2>@@@Z@4HA 0000000180021470     libucrt:commit.obj
 0003:00001188       $pdata$_write              0000000180021188     libucrt:write.obj
 0003:0000147c       $pdata$_write$fin$0        000000018002147c     libucrt:write.obj
 0003:00001194       $pdata$_write_nolock       0000000180021194     libucrt:write.obj
 0003:00001158       $pdata$?write_double_translated_ansi_nolock@@YA?AUwrite_result@?A0x17268360@@HQEBDI@Z 0000000180021158     libucrt:write.obj
 0003:00001164       $pdata$?write_text_ansi_nolock@@YA?AUwrite_result@?A0x17268360@@HQEBDI@Z 0000000180021164     libucrt:write.obj
 0003:00001170       $pdata$?write_text_utf16le_nolock@@YA?AUwrite_result@?A0x17268360@@HQEBDI@Z 0000000180021170     libucrt:write.obj
 0003:0000117c       $pdata$?write_text_utf8_nolock@@YA?AUwrite_result@?A0x17268360@@HQEBDI@Z 000000018002117c     libucrt:write.obj
 0003:000011a0       $pdata$_fcloseall          00000001800211a0     libucrt:closeall.obj
 0003:00001488       $pdata$_fcloseall$fin$0    0000000180021488     libucrt:closeall.obj
 0003:000011ac       $pdata$__acrt_stdio_free_buffer_nolock 00000001800211ac     libucrt:_freebuf.obj
 0003:000011b8       $pdata$_isatty             00000001800211b8     libucrt:isatty.obj
 0003:000011c4       $pdata$_isleadbyte_l       00000001800211c4     libucrt:_wctype.obj
 0003:000011d0       $pdata$__acrt_locale_free_monetary 00000001800211d0     libucrt:initmon.obj
 0003:000011dc       $pdata$__acrt_locale_free_numeric 00000001800211dc     libucrt:initnum.obj
 0003:000011f4       $pdata$__acrt_locale_free_time 00000001800211f4     libucrt:inittime.obj
 0003:000011e8       $pdata$?free_crt_array_internal@@YAXQEAPEBX_K@Z 00000001800211e8     libucrt:inittime.obj
 0003:00001200       $pdata$??$common_lseek_nolock@_J@@YA_JH_JH@Z 0000000180021200     libucrt:lseek.obj
 0003:0000120c       $pdata$_putwch_nolock      000000018002120c     libucrt:putwch.obj
 0003:00001224       $pdata$fclose              0000000180021224     libucrt:fclose.obj
 0003:00001494       $pdata$fclose$fin$0        0000000180021494     libucrt:fclose.obj
 0003:00001218       $pdata$_fclose_nolock      0000000180021218     libucrt:fclose.obj
 0003:0000123c       $pdata$__dcrt_lowio_ensure_console_output_initialized 000000018002123c     libucrt:initcon.obj
 0003:00001254       $pdata$__dcrt_write_console_w 0000000180021254     libucrt:initcon.obj
 0003:00001248       $pdata$__dcrt_terminate_console_output 0000000180021248     libucrt:initcon.obj
 0003:0000126c       $pdata$_close              000000018002126c     libucrt:close.obj
 0003:00001278       $pdata$_close_nolock       0000000180021278     libucrt:close.obj
 0003:00001260       $pdata$??$?RV<lambda_751a882b2c74d4b022dec766aa51a29a>@@AEAV<lambda_628dfdc04ba53c8bfc02c9951375f3f5>@@V<lambda_f6c7be5f7998530c34de24c7437d6b54>@@@?$__crt_seh_guarded_call@H@@QEAAH$$QEAV<lambda_751a882b2c74d4b022dec766aa51a29a>@@AEAV<lambda_628dfdc04ba53c8bfc02c9951375f3f5>@@$$QEAV<lambda_f6c7be5f7998530c34de24c7437d6b54>@@@Z 0000000180021260     libucrt:close.obj
 0003:00001284       $pdata$_call_matherr       0000000180021284     libucrt:libm_error.obj
 0003:00001290       $pdata$_exception_enabled  0000000180021290     libucrt:libm_error.obj
 0003:0000129c       $pdata$_handle_error       000000018002129c     libucrt:libm_error.obj
 0003:000012a8       $pdata$__acrt_initialize_fma3 00000001800212a8     libucrt:fma3_available.obj
 0003:000012c0       $pdata$_log_special_common 00000001800212c0     libucrt:log_special.obj
 0003:000012b4       $pdata$_log10_special      00000001800212b4     libucrt:log_special.obj
 0003:000012f0       $pdata$_set_errno_from_matherr 00000001800212f0     libucrt:fpexcept.obj
 0003:000012d8       $pdata$_raise_exc          00000001800212d8     libucrt:fpexcept.obj
 0003:000012e4       $pdata$_raise_exc_ex       00000001800212e4     libucrt:fpexcept.obj
 0003:000012fc       $pdata$_clrfp              00000001800212fc     libucrt:fpctrl.obj
 0003:00001308       $pdata$_ctrlfp             0000000180021308     libucrt:fpctrl.obj
 0003:000014a0       $pdata$_ctrlfp$filt$0      00000001800214a0     libucrt:fpctrl.obj
 0003:00001320       $pdata$_statfp             0000000180021320     libucrt:fpctrl.obj
 0003:00001314       $pdata$_set_statfp         0000000180021314     libucrt:fpctrl.obj
 0003:0000132c       $pdata$_IsNonwritableInCurrentImage 000000018002132c     LIBCMT:pesect.obj
 0003:000014ac       $pdata$_IsNonwritableInCurrentImage$filt$0 00000001800214ac     LIBCMT:pesect.obj
 0003:00001344       $pdata$__GSHandlerCheckCommon 0000000180021344     LIBCMT:_gshandler_.obj
 0003:00001338       $pdata$__GSHandlerCheck    0000000180021338     LIBCMT:_gshandler_.obj
 0003:00001380       $pdata$__report_securityfailure 0000000180021380     LIBCMT:gs_report.obj
 0003:00001374       $pdata$__report_rangecheckfailure 0000000180021374     LIBCMT:gs_report.obj
 0003:00001368       $pdata$__report_gsfailure  0000000180021368     LIBCMT:gs_report.obj
 0003:0000138c       $pdata$capture_current_context 000000018002138c     LIBCMT:gs_report.obj
 0003:00001398       $pdata$capture_previous_context 0000000180021398     LIBCMT:gs_report.obj
 0003:0000135c       $pdata$__raise_securityfailure 000000018002135c     LIBCMT:gs_report.obj
 0004:00000808       .idata$6                   0000000180022808     kernel32:KERNEL32.dll
 0004:00000824       .idata$6                   0000000180022824     user32:USER32.dll
 0004:0000084e       .idata$6                   000000018002284e     advapi32:ADVAPI32.dll
 0004:000008f8       .idata$6                   00000001800228f8     mpr:MPR.dll
 0004:00000924       .idata$6                   0000000180022924     Netapi32:NETAPI32.dll
 0005:00000060       $R000000                   0000000180023060     Network.res
